Component: ARM Compiler 5.06 update 6 (build 750) Tool: armlink [4d35ed]

==============================================================================

Section Cross References

    api_common.o(i.TimeTurn) refers to mktime.o(.text) for mktime
    api_common.o(i.print_multi_hex_16) refers to printfa.o(i.__0printf) for __2printf
    api_common.o(i.print_multi_hex_32) refers to printfa.o(i.__0printf) for __2printf
    api_common.o(i.print_multi_hex_8) refers to printfa.o(i.__0printf) for __2printf
    api_common.o(i.print_single_hex_16) refers to printfa.o(i.__0printf) for __2printf
    api_common.o(i.print_single_hex_32) refers to printfa.o(i.__0printf) for __2printf
    api_common.o(i.print_single_hex_8) refers to printfa.o(i.__0printf) for __2printf
    api_fifo.o(i.lm_fifo_add_node_impolite) refers to api_fifo.o(i.lm_fifo_is_full) for lm_fifo_is_full
    api_fifo.o(i.lm_fifo_add_node_impolite) refers to api_fifo.o(i.lm_fifo_delete_node_for_ISR) for lm_fifo_delete_node_for_ISR
    api_fifo.o(i.lm_fifo_add_node_impolite) refers to memcpya.o(.text) for __aeabi_memcpy
    api_fifo.o(i.lm_fifo_init) refers to memseta.o(.text) for __aeabi_memclr
    system_at32f435_437.o(i.system_core_clock_update) refers to at32f435_437_crm.o(i.crm_sysclk_switch_status_get) for crm_sysclk_switch_status_get
    system_at32f435_437.o(i.system_core_clock_update) refers to uldiv.o(.text) for __aeabi_uldivmod
    system_at32f435_437.o(i.system_core_clock_update) refers to system_at32f435_437.o(.data) for .data
    system_at32f435_437.o(i.system_core_clock_update) refers to system_at32f435_437.o(.constdata) for .constdata
    startup_at32f435_437.o(RESET) refers to startup_at32f435_437.o(STACK) for __initial_sp
    startup_at32f435_437.o(RESET) refers to startup_at32f435_437.o(.text) for Reset_Handler
    startup_at32f435_437.o(RESET) refers to sys_timerun.o(i.SysTick_Handler) for SysTick_Handler
    startup_at32f435_437.o(RESET) refers to hal_keyled.o(i.EXINT0_IRQHandler) for EXINT0_IRQHandler
    startup_at32f435_437.o(RESET) refers to hal_keyled.o(i.EXINT1_IRQHandler) for EXINT1_IRQHandler
    startup_at32f435_437.o(RESET) refers to hal_keyled.o(i.EXINT9_5_IRQHandler) for EXINT9_5_IRQHandler
    startup_at32f435_437.o(RESET) refers to bsp_uartrec.o(i.USART1_IRQHandler) for USART1_IRQHandler
    startup_at32f435_437.o(RESET) refers to bsp_uartrec.o(i.USART2_IRQHandler) for USART2_IRQHandler
    startup_at32f435_437.o(RESET) refers to bsp_uartrec.o(i.USART3_IRQHandler) for USART3_IRQHandler
    startup_at32f435_437.o(RESET) refers to hal_sleep.o(i.ERTCAlarm_IRQHandler) for ERTCAlarm_IRQHandler
    startup_at32f435_437.o(RESET) refers to hal_sleep.o(i.TMR5_GLOBAL_IRQHandler) for TMR5_GLOBAL_IRQHandler
    startup_at32f435_437.o(RESET) refers to bsp_uartrec.o(i.UART4_IRQHandler) for UART4_IRQHandler
    startup_at32f435_437.o(.text) refers to system_at32f435_437.o(i.SystemInit) for SystemInit
    startup_at32f435_437.o(.text) refers to entry.o(.ARM.Collect$$$$00000000) for __main
    at32f435_437_adc.o(i.adc_reset) refers to at32f435_437_crm.o(i.crm_periph_reset) for crm_periph_reset
    at32f435_437_crm.o(i.crm_clocks_freq_get) refers to at32f435_437_crm.o(i.crm_sysclk_switch_status_get) for crm_sysclk_switch_status_get
    at32f435_437_crm.o(i.crm_clocks_freq_get) refers to uldiv.o(.text) for __aeabi_uldivmod
    at32f435_437_crm.o(i.crm_clocks_freq_get) refers to at32f435_437_crm.o(.constdata) for .constdata
    at32f435_437_crm.o(i.crm_hext_stable_wait) refers to at32f435_437_crm.o(i.crm_flag_get) for crm_flag_get
    at32f435_437_crm.o(i.crm_hick_sclk_frequency_select) refers to at32f435_437_crm.o(i.crm_hick_divider_select) for crm_hick_divider_select
    at32f435_437_crm.o(i.crm_usb_clock_source_select) refers to at32f435_437_crm.o(i.crm_hick_sclk_frequency_select) for crm_hick_sclk_frequency_select
    at32f435_437_ertc.o(i.ertc_alarm_enable) refers to at32f435_437_ertc.o(i.ertc_write_protect_disable) for ertc_write_protect_disable
    at32f435_437_ertc.o(i.ertc_alarm_enable) refers to at32f435_437_ertc.o(i.ertc_wait_flag) for ertc_wait_flag
    at32f435_437_ertc.o(i.ertc_alarm_get) refers to at32f435_437_ertc.o(i.ertc_bcd_to_num) for ertc_bcd_to_num
    at32f435_437_ertc.o(i.ertc_alarm_mask_set) refers to at32f435_437_ertc.o(i.ertc_write_protect_disable) for ertc_write_protect_disable
    at32f435_437_ertc.o(i.ertc_alarm_set) refers to at32f435_437_ertc.o(i.ertc_num_to_bcd) for ertc_num_to_bcd
    at32f435_437_ertc.o(i.ertc_alarm_set) refers to at32f435_437_ertc.o(i.ertc_write_protect_disable) for ertc_write_protect_disable
    at32f435_437_ertc.o(i.ertc_alarm_sub_second_set) refers to at32f435_437_ertc.o(i.ertc_write_protect_disable) for ertc_write_protect_disable
    at32f435_437_ertc.o(i.ertc_alarm_week_date_select) refers to at32f435_437_ertc.o(i.ertc_write_protect_disable) for ertc_write_protect_disable
    at32f435_437_ertc.o(i.ertc_cal_output_enable) refers to at32f435_437_ertc.o(i.ertc_write_protect_disable) for ertc_write_protect_disable
    at32f435_437_ertc.o(i.ertc_cal_output_select) refers to at32f435_437_ertc.o(i.ertc_write_protect_disable) for ertc_write_protect_disable
    at32f435_437_ertc.o(i.ertc_calendar_get) refers to at32f435_437_ertc.o(i.ertc_bcd_to_num) for ertc_bcd_to_num
    at32f435_437_ertc.o(i.ertc_coarse_calibration_enable) refers to at32f435_437_ertc.o(i.ertc_write_protect_disable) for ertc_write_protect_disable
    at32f435_437_ertc.o(i.ertc_coarse_calibration_enable) refers to at32f435_437_ertc.o(i.ertc_init_mode_enter) for ertc_init_mode_enter
    at32f435_437_ertc.o(i.ertc_coarse_calibration_set) refers to at32f435_437_ertc.o(i.ertc_write_protect_disable) for ertc_write_protect_disable
    at32f435_437_ertc.o(i.ertc_coarse_calibration_set) refers to at32f435_437_ertc.o(i.ertc_init_mode_enter) for ertc_init_mode_enter
    at32f435_437_ertc.o(i.ertc_date_set) refers to at32f435_437_ertc.o(i.ertc_num_to_bcd) for ertc_num_to_bcd
    at32f435_437_ertc.o(i.ertc_date_set) refers to at32f435_437_ertc.o(i.ertc_write_protect_disable) for ertc_write_protect_disable
    at32f435_437_ertc.o(i.ertc_date_set) refers to at32f435_437_ertc.o(i.ertc_init_mode_enter) for ertc_init_mode_enter
    at32f435_437_ertc.o(i.ertc_date_set) refers to at32f435_437_ertc.o(i.ertc_wait_update) for ertc_wait_update
    at32f435_437_ertc.o(i.ertc_daylight_set) refers to at32f435_437_ertc.o(i.ertc_write_protect_disable) for ertc_write_protect_disable
    at32f435_437_ertc.o(i.ertc_direct_read_enable) refers to at32f435_437_ertc.o(i.ertc_write_protect_disable) for ertc_write_protect_disable
    at32f435_437_ertc.o(i.ertc_divider_set) refers to at32f435_437_ertc.o(i.ertc_write_protect_disable) for ertc_write_protect_disable
    at32f435_437_ertc.o(i.ertc_divider_set) refers to at32f435_437_ertc.o(i.ertc_init_mode_enter) for ertc_init_mode_enter
    at32f435_437_ertc.o(i.ertc_hour_mode_set) refers to at32f435_437_ertc.o(i.ertc_write_protect_disable) for ertc_write_protect_disable
    at32f435_437_ertc.o(i.ertc_hour_mode_set) refers to at32f435_437_ertc.o(i.ertc_init_mode_enter) for ertc_init_mode_enter
    at32f435_437_ertc.o(i.ertc_interrupt_enable) refers to at32f435_437_ertc.o(i.ertc_write_protect_disable) for ertc_write_protect_disable
    at32f435_437_ertc.o(i.ertc_output_set) refers to at32f435_437_ertc.o(i.ertc_write_protect_disable) for ertc_write_protect_disable
    at32f435_437_ertc.o(i.ertc_refer_clock_detect_enable) refers to at32f435_437_ertc.o(i.ertc_write_protect_disable) for ertc_write_protect_disable
    at32f435_437_ertc.o(i.ertc_refer_clock_detect_enable) refers to at32f435_437_ertc.o(i.ertc_init_mode_enter) for ertc_init_mode_enter
    at32f435_437_ertc.o(i.ertc_reset) refers to at32f435_437_ertc.o(i.ertc_write_protect_disable) for ertc_write_protect_disable
    at32f435_437_ertc.o(i.ertc_reset) refers to at32f435_437_ertc.o(i.ertc_init_mode_enter) for ertc_init_mode_enter
    at32f435_437_ertc.o(i.ertc_reset) refers to at32f435_437_ertc.o(i.ertc_wait_update) for ertc_wait_update
    at32f435_437_ertc.o(i.ertc_smooth_calibration_config) refers to at32f435_437_ertc.o(i.ertc_write_protect_disable) for ertc_write_protect_disable
    at32f435_437_ertc.o(i.ertc_smooth_calibration_config) refers to at32f435_437_ertc.o(i.ertc_wait_flag) for ertc_wait_flag
    at32f435_437_ertc.o(i.ertc_tamper_1_pin_select) refers to at32f435_437_ertc.o(i.ertc_write_protect_disable) for ertc_write_protect_disable
    at32f435_437_ertc.o(i.ertc_tamper_detect_freq_set) refers to at32f435_437_ertc.o(i.ertc_write_protect_disable) for ertc_write_protect_disable
    at32f435_437_ertc.o(i.ertc_tamper_enable) refers to at32f435_437_ertc.o(i.ertc_write_protect_disable) for ertc_write_protect_disable
    at32f435_437_ertc.o(i.ertc_tamper_filter_set) refers to at32f435_437_ertc.o(i.ertc_write_protect_disable) for ertc_write_protect_disable
    at32f435_437_ertc.o(i.ertc_tamper_precharge_set) refers to at32f435_437_ertc.o(i.ertc_write_protect_disable) for ertc_write_protect_disable
    at32f435_437_ertc.o(i.ertc_tamper_pull_up_enable) refers to at32f435_437_ertc.o(i.ertc_write_protect_disable) for ertc_write_protect_disable
    at32f435_437_ertc.o(i.ertc_tamper_timestamp_enable) refers to at32f435_437_ertc.o(i.ertc_write_protect_disable) for ertc_write_protect_disable
    at32f435_437_ertc.o(i.ertc_tamper_valid_edge_set) refers to at32f435_437_ertc.o(i.ertc_write_protect_disable) for ertc_write_protect_disable
    at32f435_437_ertc.o(i.ertc_time_adjust) refers to at32f435_437_ertc.o(i.ertc_write_protect_disable) for ertc_write_protect_disable
    at32f435_437_ertc.o(i.ertc_time_adjust) refers to at32f435_437_ertc.o(i.ertc_wait_flag) for ertc_wait_flag
    at32f435_437_ertc.o(i.ertc_time_adjust) refers to at32f435_437_ertc.o(i.ertc_wait_update) for ertc_wait_update
    at32f435_437_ertc.o(i.ertc_time_set) refers to at32f435_437_ertc.o(i.ertc_num_to_bcd) for ertc_num_to_bcd
    at32f435_437_ertc.o(i.ertc_time_set) refers to at32f435_437_ertc.o(i.ertc_write_protect_disable) for ertc_write_protect_disable
    at32f435_437_ertc.o(i.ertc_time_set) refers to at32f435_437_ertc.o(i.ertc_init_mode_enter) for ertc_init_mode_enter
    at32f435_437_ertc.o(i.ertc_time_set) refers to at32f435_437_ertc.o(i.ertc_wait_update) for ertc_wait_update
    at32f435_437_ertc.o(i.ertc_timestamp_enable) refers to at32f435_437_ertc.o(i.ertc_write_protect_disable) for ertc_write_protect_disable
    at32f435_437_ertc.o(i.ertc_timestamp_get) refers to at32f435_437_ertc.o(i.ertc_bcd_to_num) for ertc_bcd_to_num
    at32f435_437_ertc.o(i.ertc_timestamp_pin_select) refers to at32f435_437_ertc.o(i.ertc_write_protect_disable) for ertc_write_protect_disable
    at32f435_437_ertc.o(i.ertc_timestamp_valid_edge_set) refers to at32f435_437_ertc.o(i.ertc_write_protect_disable) for ertc_write_protect_disable
    at32f435_437_ertc.o(i.ertc_wait_flag) refers to at32f435_437_ertc.o(i.ertc_flag_get) for ertc_flag_get
    at32f435_437_ertc.o(i.ertc_wakeup_clock_set) refers to at32f435_437_ertc.o(i.ertc_write_protect_disable) for ertc_write_protect_disable
    at32f435_437_ertc.o(i.ertc_wakeup_counter_set) refers to at32f435_437_ertc.o(i.ertc_write_protect_disable) for ertc_write_protect_disable
    at32f435_437_ertc.o(i.ertc_wakeup_enable) refers to at32f435_437_ertc.o(i.ertc_write_protect_disable) for ertc_write_protect_disable
    at32f435_437_ertc.o(i.ertc_wakeup_enable) refers to at32f435_437_ertc.o(i.ertc_wait_flag) for ertc_wait_flag
    at32f435_437_flash.o(i.flash_bank1_erase) refers to at32f435_437_flash.o(i.flash_bank1_operation_wait_for) for flash_bank1_operation_wait_for
    at32f435_437_flash.o(i.flash_bank1_operation_wait_for) refers to at32f435_437_flash.o(i.flash_bank1_operation_status_get) for flash_bank1_operation_status_get
    at32f435_437_flash.o(i.flash_bank2_erase) refers to at32f435_437_flash.o(i.flash_bank2_operation_wait_for) for flash_bank2_operation_wait_for
    at32f435_437_flash.o(i.flash_bank2_operation_wait_for) refers to at32f435_437_flash.o(i.flash_bank2_operation_status_get) for flash_bank2_operation_status_get
    at32f435_437_flash.o(i.flash_block_erase) refers to at32f435_437_flash.o(i.flash_bank1_operation_wait_for) for flash_bank1_operation_wait_for
    at32f435_437_flash.o(i.flash_block_erase) refers to at32f435_437_flash.o(i.flash_bank2_operation_wait_for) for flash_bank2_operation_wait_for
    at32f435_437_flash.o(i.flash_byte_program) refers to at32f435_437_flash.o(i.flash_bank1_operation_wait_for) for flash_bank1_operation_wait_for
    at32f435_437_flash.o(i.flash_byte_program) refers to at32f435_437_flash.o(i.flash_bank2_operation_wait_for) for flash_bank2_operation_wait_for
    at32f435_437_flash.o(i.flash_crc_calibrate) refers to at32f435_437_flash.o(i.flash_operation_wait_for) for flash_operation_wait_for
    at32f435_437_flash.o(i.flash_eopb0_config) refers to at32f435_437_flash.o(i.flash_operation_wait_for) for flash_operation_wait_for
    at32f435_437_flash.o(i.flash_epp_set) refers to at32f435_437_flash.o(i.flash_operation_wait_for) for flash_operation_wait_for
    at32f435_437_flash.o(i.flash_fap_enable) refers to at32f435_437_flash.o(i.flash_operation_wait_for) for flash_operation_wait_for
    at32f435_437_flash.o(i.flash_halfword_program) refers to at32f435_437_flash.o(i.flash_bank1_operation_wait_for) for flash_bank1_operation_wait_for
    at32f435_437_flash.o(i.flash_halfword_program) refers to at32f435_437_flash.o(i.flash_bank2_operation_wait_for) for flash_bank2_operation_wait_for
    at32f435_437_flash.o(i.flash_internal_all_erase) refers to at32f435_437_flash.o(i.flash_bank1_operation_wait_for) for flash_bank1_operation_wait_for
    at32f435_437_flash.o(i.flash_internal_all_erase) refers to at32f435_437_flash.o(i.flash_bank2_operation_wait_for) for flash_bank2_operation_wait_for
    at32f435_437_flash.o(i.flash_operation_wait_for) refers to at32f435_437_flash.o(i.flash_operation_status_get) for flash_operation_status_get
    at32f435_437_flash.o(i.flash_sector_erase) refers to at32f435_437_flash.o(i.flash_bank1_operation_wait_for) for flash_bank1_operation_wait_for
    at32f435_437_flash.o(i.flash_sector_erase) refers to at32f435_437_flash.o(i.flash_bank2_operation_wait_for) for flash_bank2_operation_wait_for
    at32f435_437_flash.o(i.flash_slib_disable) refers to at32f435_437_flash.o(i.flash_operation_wait_for) for flash_operation_wait_for
    at32f435_437_flash.o(i.flash_slib_enable) refers to at32f435_437_flash.o(i.flash_operation_wait_for) for flash_operation_wait_for
    at32f435_437_flash.o(i.flash_ssb_set) refers to at32f435_437_flash.o(i.flash_operation_wait_for) for flash_operation_wait_for
    at32f435_437_flash.o(i.flash_user_system_data_erase) refers to at32f435_437_flash.o(i.flash_fap_status_get) for flash_fap_status_get
    at32f435_437_flash.o(i.flash_user_system_data_erase) refers to at32f435_437_flash.o(i.flash_operation_wait_for) for flash_operation_wait_for
    at32f435_437_flash.o(i.flash_user_system_data_program) refers to at32f435_437_flash.o(i.flash_operation_wait_for) for flash_operation_wait_for
    at32f435_437_flash.o(i.flash_word_program) refers to at32f435_437_flash.o(i.flash_bank1_operation_wait_for) for flash_bank1_operation_wait_for
    at32f435_437_flash.o(i.flash_word_program) refers to at32f435_437_flash.o(i.flash_bank2_operation_wait_for) for flash_bank2_operation_wait_for
    at32f435_437_gpio.o(i.gpio_reset) refers to at32f435_437_crm.o(i.crm_periph_reset) for crm_periph_reset
    at32f435_437_pwc.o(i.pwc_reset) refers to at32f435_437_crm.o(i.crm_periph_reset) for crm_periph_reset
    at32f435_437_tmr.o(i.tmr_external_clock_mode1_config) refers to at32f435_437_tmr.o(i.tmr_external_clock_config) for tmr_external_clock_config
    at32f435_437_tmr.o(i.tmr_external_clock_mode2_config) refers to at32f435_437_tmr.o(i.tmr_external_clock_config) for tmr_external_clock_config
    at32f435_437_tmr.o(i.tmr_reset) refers to at32f435_437_crm.o(i.crm_periph_reset) for crm_periph_reset
    at32f435_437_usart.o(i.usart_init) refers to at32f435_437_crm.o(i.crm_clocks_freq_get) for crm_clocks_freq_get
    at32f435_437_usart.o(i.usart_reset) refers to at32f435_437_crm.o(i.crm_periph_reset) for crm_periph_reset
    at32f435_437_scfg.o(i.scfg_reset) refers to at32f435_437_crm.o(i.crm_periph_reset) for crm_periph_reset
    at32f435_437_wwdt.o(i.wwdt_reset) refers to at32f435_437_crm.o(i.crm_periph_reset) for crm_periph_reset
    hal_keyled.o(i.EXINT0_IRQHandler) refers to at32f435_437_exint.o(i.exint_interrupt_flag_get) for exint_interrupt_flag_get
    hal_keyled.o(i.EXINT0_IRQHandler) refers to at32f435_437_exint.o(i.exint_flag_clear) for exint_flag_clear
    hal_keyled.o(i.EXINT1_IRQHandler) refers to at32f435_437_exint.o(i.exint_interrupt_flag_get) for exint_interrupt_flag_get
    hal_keyled.o(i.EXINT1_IRQHandler) refers to at32f435_437_exint.o(i.exint_flag_clear) for exint_flag_clear
    hal_keyled.o(i.EXINT9_5_IRQHandler) refers to at32f435_437_exint.o(i.exint_interrupt_flag_get) for exint_interrupt_flag_get
    hal_keyled.o(i.EXINT9_5_IRQHandler) refers to at32f435_437_exint.o(i.exint_flag_clear) for exint_flag_clear
    hal_keyled.o(i.Hal_Bat_Led_Display_Enable) refers to at32f435_437_gpio.o(i.gpio_bits_set) for gpio_bits_set
    hal_keyled.o(i.Hal_Bat_Led_Display_Enable) refers to at32f435_437_gpio.o(i.gpio_bits_reset) for gpio_bits_reset
    hal_keyled.o(i.Hal_Bat_Led_Heartbeat) refers to hal_keyled.o(i.Heartbeat_BAT4_Led) for Heartbeat_BAT4_Led
    hal_keyled.o(i.Hal_Bat_Led_Heartbeat) refers to hal_keyled.o(i.Heartbeat_BAT1_Led) for Heartbeat_BAT1_Led
    hal_keyled.o(i.Hal_Bat_Led_Heartbeat) refers to hal_keyled.o(i.Heartbeat_BAT2_Led) for Heartbeat_BAT2_Led
    hal_keyled.o(i.Hal_Bat_Led_Heartbeat) refers to hal_keyled.o(i.Heartbeat_BAT3_Led) for Heartbeat_BAT3_Led
    hal_keyled.o(i.Hal_Error_Led_Display_Enable) refers to at32f435_437_gpio.o(i.gpio_output_data_bit_read) for gpio_output_data_bit_read
    hal_keyled.o(i.Hal_Error_Led_Display_Enable) refers to at32f435_437_gpio.o(i.gpio_bits_set) for gpio_bits_set
    hal_keyled.o(i.Hal_Error_Led_Display_Enable) refers to at32f435_437_gpio.o(i.gpio_bits_reset) for gpio_bits_reset
    hal_keyled.o(i.Hal_Exit_Bot_Deinit) refers to at32f435_437_exint.o(i.exint_reset) for exint_reset
    hal_keyled.o(i.Hal_Exit_Bot_Deinit) refers to at32f435_437_misc.o(i.nvic_irq_disable) for nvic_irq_disable
    hal_keyled.o(i.Hal_Exit_Bot_Deinit) refers to at32f435_437_gpio.o(i.gpio_init) for gpio_init
    hal_keyled.o(i.Hal_Exit_Bot_Init) refers to at32f435_437_scfg.o(i.scfg_exint_line_config) for scfg_exint_line_config
    hal_keyled.o(i.Hal_Exit_Bot_Init) refers to at32f435_437_exint.o(i.exint_default_para_init) for exint_default_para_init
    hal_keyled.o(i.Hal_Exit_Bot_Init) refers to at32f435_437_exint.o(i.exint_init) for exint_init
    hal_keyled.o(i.Hal_Exit_Bot_Init) refers to at32f435_437_misc.o(i.nvic_irq_enable) for nvic_irq_enable
    hal_keyled.o(i.Hal_Exit_Side_Deinit) refers to at32f435_437_exint.o(i.exint_reset) for exint_reset
    hal_keyled.o(i.Hal_Exit_Side_Deinit) refers to at32f435_437_misc.o(i.nvic_irq_disable) for nvic_irq_disable
    hal_keyled.o(i.Hal_Exit_Side_Deinit) refers to at32f435_437_gpio.o(i.gpio_init) for gpio_init
    hal_keyled.o(i.Hal_Exit_Side_Init) refers to at32f435_437_scfg.o(i.scfg_exint_line_config) for scfg_exint_line_config
    hal_keyled.o(i.Hal_Exit_Side_Init) refers to at32f435_437_exint.o(i.exint_default_para_init) for exint_default_para_init
    hal_keyled.o(i.Hal_Exit_Side_Init) refers to at32f435_437_exint.o(i.exint_init) for exint_init
    hal_keyled.o(i.Hal_Exit_Side_Init) refers to at32f435_437_misc.o(i.nvic_irq_enable) for nvic_irq_enable
    hal_keyled.o(i.Hal_Exit_Slide_Deinit) refers to at32f435_437_exint.o(i.exint_reset) for exint_reset
    hal_keyled.o(i.Hal_Exit_Slide_Deinit) refers to at32f435_437_misc.o(i.nvic_irq_disable) for nvic_irq_disable
    hal_keyled.o(i.Hal_Exit_Slide_Deinit) refers to at32f435_437_gpio.o(i.gpio_init) for gpio_init
    hal_keyled.o(i.Hal_Exit_Slide_Init) refers to at32f435_437_scfg.o(i.scfg_exint_line_config) for scfg_exint_line_config
    hal_keyled.o(i.Hal_Exit_Slide_Init) refers to at32f435_437_exint.o(i.exint_default_para_init) for exint_default_para_init
    hal_keyled.o(i.Hal_Exit_Slide_Init) refers to at32f435_437_exint.o(i.exint_init) for exint_init
    hal_keyled.o(i.Hal_Exit_Slide_Init) refers to at32f435_437_misc.o(i.nvic_irq_enable) for nvic_irq_enable
    hal_keyled.o(i.Hal_Get_BotKey_State) refers to at32f435_437_gpio.o(i.gpio_input_data_bit_read) for gpio_input_data_bit_read
    hal_keyled.o(i.Hal_Get_MagKey_State) refers to at32f435_437_gpio.o(i.gpio_input_data_bit_read) for gpio_input_data_bit_read
    hal_keyled.o(i.Hal_Get_SideKey_State) refers to at32f435_437_gpio.o(i.gpio_input_data_bit_read) for gpio_input_data_bit_read
    hal_keyled.o(i.Hal_Get_SlideKey_State) refers to at32f435_437_gpio.o(i.gpio_input_data_bit_read) for gpio_input_data_bit_read
    hal_keyled.o(i.Hal_Key_Init) refers to at32f435_437_gpio.o(i.gpio_default_para_init) for gpio_default_para_init
    hal_keyled.o(i.Hal_Key_Init) refers to at32f435_437_gpio.o(i.gpio_init) for gpio_init
    hal_keyled.o(i.Hal_Led_Init) refers to at32f435_437_gpio.o(i.gpio_default_para_init) for gpio_default_para_init
    hal_keyled.o(i.Hal_Led_Init) refers to at32f435_437_gpio.o(i.gpio_init) for gpio_init
    hal_keyled.o(i.Hal_Led_Init) refers to at32f435_437_gpio.o(i.gpio_bits_reset) for gpio_bits_reset
    hal_keyled.o(i.Heartbeat_BAT1_Led) refers to at32f435_437_gpio.o(i.gpio_output_data_bit_read) for gpio_output_data_bit_read
    hal_keyled.o(i.Heartbeat_BAT1_Led) refers to at32f435_437_gpio.o(i.gpio_bits_write) for gpio_bits_write
    hal_keyled.o(i.Heartbeat_BAT2_Led) refers to at32f435_437_gpio.o(i.gpio_output_data_bit_read) for gpio_output_data_bit_read
    hal_keyled.o(i.Heartbeat_BAT2_Led) refers to at32f435_437_gpio.o(i.gpio_bits_write) for gpio_bits_write
    hal_keyled.o(i.Heartbeat_BAT3_Led) refers to at32f435_437_gpio.o(i.gpio_output_data_bit_read) for gpio_output_data_bit_read
    hal_keyled.o(i.Heartbeat_BAT3_Led) refers to at32f435_437_gpio.o(i.gpio_bits_write) for gpio_bits_write
    hal_keyled.o(i.Heartbeat_BAT4_Led) refers to at32f435_437_gpio.o(i.gpio_output_data_bit_read) for gpio_output_data_bit_read
    hal_keyled.o(i.Heartbeat_BAT4_Led) refers to at32f435_437_gpio.o(i.gpio_bits_write) for gpio_bits_write
    hal_init.o(i.Hal_System_Clock_Init) refers to at32f435_437_crm.o(i.crm_reset) for crm_reset
    hal_init.o(i.Hal_System_Clock_Init) refers to at32f435_437_crm.o(i.crm_periph_clock_enable) for crm_periph_clock_enable
    hal_init.o(i.Hal_System_Clock_Init) refers to at32f435_437_crm.o(i.crm_clock_source_enable) for crm_clock_source_enable
    hal_init.o(i.Hal_System_Clock_Init) refers to at32f435_437_crm.o(i.crm_hext_stable_wait) for crm_hext_stable_wait
    hal_init.o(i.Hal_System_Clock_Init) refers to at32f435_437_crm.o(i.crm_pll_config) for crm_pll_config
    hal_init.o(i.Hal_System_Clock_Init) refers to at32f435_437_crm.o(i.crm_flag_get) for crm_flag_get
    hal_init.o(i.Hal_System_Clock_Init) refers to at32f435_437_crm.o(i.crm_ahb_div_set) for crm_ahb_div_set
    hal_init.o(i.Hal_System_Clock_Init) refers to at32f435_437_crm.o(i.crm_apb2_div_set) for crm_apb2_div_set
    hal_init.o(i.Hal_System_Clock_Init) refers to at32f435_437_crm.o(i.crm_apb1_div_set) for crm_apb1_div_set
    hal_init.o(i.Hal_System_Clock_Init) refers to at32f435_437_crm.o(i.crm_auto_step_mode_enable) for crm_auto_step_mode_enable
    hal_init.o(i.Hal_System_Clock_Init) refers to at32f435_437_crm.o(i.crm_sysclk_switch) for crm_sysclk_switch
    hal_init.o(i.Hal_System_Clock_Init) refers to at32f435_437_crm.o(i.crm_sysclk_switch_status_get) for crm_sysclk_switch_status_get
    hal_init.o(i.Hal_System_Clock_Init) refers to system_at32f435_437.o(i.system_core_clock_update) for system_core_clock_update
    hal_init.o(i.Hal_System_Clock_Init) refers to at32f435_437_misc.o(i.systick_clock_source_config) for systick_clock_source_config
    hal_init.o(i.Hal_System_Clock_Init) refers to system_at32f435_437.o(.data) for system_core_clock
    hal_init.o(i.Mcu_Hal_Init) refers to at32f435_437_misc.o(i.nvic_vector_table_set) for nvic_vector_table_set
    hal_init.o(i.Mcu_Hal_Init) refers to hal_init.o(i.Hal_System_Clock_Init) for Hal_System_Clock_Init
    hal_init.o(i.Mcu_Hal_Init) refers to at32f435_437_misc.o(i.nvic_priority_group_config) for nvic_priority_group_config
    hal_init.o(i.Mcu_Hal_Init) refers to hal_keyled.o(i.Hal_Key_Init) for Hal_Key_Init
    hal_init.o(i.Mcu_Hal_Init) refers to hal_keyled.o(i.Hal_Led_Init) for Hal_Led_Init
    hal_init.o(i.Mcu_Hal_Init) refers to hal_powmanage.o(i.Hal_Pow_Switch_Init) for Hal_Pow_Switch_Init
    hal_init.o(i.Mcu_Hal_Init) refers to hal_powmanage.o(i.Hal_Charge_Init) for Hal_Charge_Init
    hal_init.o(i.Mcu_Hal_Init) refers to hal_uart.o(i.Hal_Uart2_Init) for Hal_Uart2_Init
    hal_init.o(i.Mcu_Hal_Init) refers to hal_sleep.o(i.Hal_RTC_init) for Hal_RTC_init
    hal_init.o(i.Mcu_Hal_Init) refers to hal_sleep.o(i.RTC_Fre_Calib) for RTC_Fre_Calib
    hal_init.o(i.NVIC_Init) refers to at32f435_437_misc.o(i.nvic_priority_group_config) for nvic_priority_group_config
    hal_powmanage.o(i.Hal_ADC_Deinit) refers to at32f435_437_adc.o(i.adc_enable) for adc_enable
    hal_powmanage.o(i.Hal_BatVol_Init) refers to at32f435_437_gpio.o(i.gpio_default_para_init) for gpio_default_para_init
    hal_powmanage.o(i.Hal_BatVol_Init) refers to at32f435_437_gpio.o(i.gpio_init) for gpio_init
    hal_powmanage.o(i.Hal_BatVol_Init) refers to at32f435_437_crm.o(i.crm_periph_clock_enable) for crm_periph_clock_enable
    hal_powmanage.o(i.Hal_BatVol_Init) refers to at32f435_437_adc.o(i.adc_common_default_para_init) for adc_common_default_para_init
    hal_powmanage.o(i.Hal_BatVol_Init) refers to at32f435_437_adc.o(i.adc_common_config) for adc_common_config
    hal_powmanage.o(i.Hal_BatVol_Init) refers to at32f435_437_adc.o(i.adc_base_default_para_init) for adc_base_default_para_init
    hal_powmanage.o(i.Hal_BatVol_Init) refers to at32f435_437_adc.o(i.adc_base_config) for adc_base_config
    hal_powmanage.o(i.Hal_BatVol_Init) refers to at32f435_437_adc.o(i.adc_ordinary_channel_set) for adc_ordinary_channel_set
    hal_powmanage.o(i.Hal_BatVol_Init) refers to at32f435_437_adc.o(i.adc_ordinary_software_trigger_enable) for adc_ordinary_software_trigger_enable
    hal_powmanage.o(i.Hal_BatVol_Init) refers to at32f435_437_adc.o(i.adc_enable) for adc_enable
    hal_powmanage.o(i.Hal_Charge_Init) refers to at32f435_437_gpio.o(i.gpio_default_para_init) for gpio_default_para_init
    hal_powmanage.o(i.Hal_Charge_Init) refers to at32f435_437_gpio.o(i.gpio_init) for gpio_init
    hal_powmanage.o(i.Hal_Charge_Init) refers to at32f435_437_gpio.o(i.gpio_bits_set) for gpio_bits_set
    hal_powmanage.o(i.Hal_Get_ADC1_Value) refers to at32f435_437_adc.o(i.adc_ordinary_conversion_data_get) for adc_ordinary_conversion_data_get
    hal_powmanage.o(i.Hal_Get_ADC2_Value) refers to at32f435_437_adc.o(i.adc_ordinary_conversion_data_get) for adc_ordinary_conversion_data_get
    hal_powmanage.o(i.Hal_Get_ChagFull_State) refers to at32f435_437_gpio.o(i.gpio_input_data_bit_read) for gpio_input_data_bit_read
    hal_powmanage.o(i.Hal_Get_USB_In_State) refers to at32f435_437_gpio.o(i.gpio_input_data_bit_read) for gpio_input_data_bit_read
    hal_powmanage.o(i.Hal_Pow_Switch_Init) refers to at32f435_437_gpio.o(i.gpio_default_para_init) for gpio_default_para_init
    hal_powmanage.o(i.Hal_Pow_Switch_Init) refers to at32f435_437_gpio.o(i.gpio_init) for gpio_init
    hal_powmanage.o(i.Hal_Pow_Switch_Init) refers to at32f435_437_gpio.o(i.gpio_bits_reset) for gpio_bits_reset
    hal_powmanage.o(i.Hal_Pow_Switch_Init) refers to at32f435_437_gpio.o(i.gpio_bits_set) for gpio_bits_set
    hal_powmanage.o(i.Hal_Start_VBat_ADC_Convert) refers to at32f435_437_adc.o(i.adc_ordinary_channel_set) for adc_ordinary_channel_set
    hal_powmanage.o(i.Hal_Start_VBat_ADC_Convert) refers to at32f435_437_adc.o(i.adc_ordinary_software_trigger_enable) for adc_ordinary_software_trigger_enable
    hal_powmanage.o(i.Hal_Start_VSloar_ADC_Convert) refers to at32f435_437_adc.o(i.adc_ordinary_channel_set) for adc_ordinary_channel_set
    hal_powmanage.o(i.Hal_Start_VSloar_ADC_Convert) refers to at32f435_437_adc.o(i.adc_ordinary_software_trigger_enable) for adc_ordinary_software_trigger_enable
    hal_uart.o(i.Hal_Uart1_Deinit) refers to at32f435_437_usart.o(i.usart_enable) for usart_enable
    hal_uart.o(i.Hal_Uart1_Deinit) refers to at32f435_437_usart.o(i.usart_interrupt_enable) for usart_interrupt_enable
    hal_uart.o(i.Hal_Uart1_Init) refers to at32f435_437_crm.o(i.crm_periph_clock_enable) for crm_periph_clock_enable
    hal_uart.o(i.Hal_Uart1_Init) refers to at32f435_437_gpio.o(i.gpio_default_para_init) for gpio_default_para_init
    hal_uart.o(i.Hal_Uart1_Init) refers to at32f435_437_gpio.o(i.gpio_init) for gpio_init
    hal_uart.o(i.Hal_Uart1_Init) refers to at32f435_437_gpio.o(i.gpio_pin_mux_config) for gpio_pin_mux_config
    hal_uart.o(i.Hal_Uart1_Init) refers to at32f435_437_misc.o(i.nvic_irq_enable) for nvic_irq_enable
    hal_uart.o(i.Hal_Uart1_Init) refers to at32f435_437_usart.o(i.usart_init) for usart_init
    hal_uart.o(i.Hal_Uart1_Init) refers to at32f435_437_usart.o(i.usart_transmitter_enable) for usart_transmitter_enable
    hal_uart.o(i.Hal_Uart1_Init) refers to at32f435_437_usart.o(i.usart_receiver_enable) for usart_receiver_enable
    hal_uart.o(i.Hal_Uart1_Init) refers to at32f435_437_usart.o(i.usart_interrupt_enable) for usart_interrupt_enable
    hal_uart.o(i.Hal_Uart1_Init) refers to at32f435_437_usart.o(i.usart_enable) for usart_enable
    hal_uart.o(i.Hal_Uart2_Deinit) refers to at32f435_437_usart.o(i.usart_enable) for usart_enable
    hal_uart.o(i.Hal_Uart2_Deinit) refers to at32f435_437_usart.o(i.usart_interrupt_enable) for usart_interrupt_enable
    hal_uart.o(i.Hal_Uart2_Init) refers to at32f435_437_crm.o(i.crm_periph_clock_enable) for crm_periph_clock_enable
    hal_uart.o(i.Hal_Uart2_Init) refers to at32f435_437_gpio.o(i.gpio_default_para_init) for gpio_default_para_init
    hal_uart.o(i.Hal_Uart2_Init) refers to at32f435_437_gpio.o(i.gpio_init) for gpio_init
    hal_uart.o(i.Hal_Uart2_Init) refers to at32f435_437_gpio.o(i.gpio_pin_mux_config) for gpio_pin_mux_config
    hal_uart.o(i.Hal_Uart2_Init) refers to at32f435_437_misc.o(i.nvic_irq_enable) for nvic_irq_enable
    hal_uart.o(i.Hal_Uart2_Init) refers to at32f435_437_usart.o(i.usart_init) for usart_init
    hal_uart.o(i.Hal_Uart2_Init) refers to at32f435_437_usart.o(i.usart_transmitter_enable) for usart_transmitter_enable
    hal_uart.o(i.Hal_Uart2_Init) refers to at32f435_437_usart.o(i.usart_receiver_enable) for usart_receiver_enable
    hal_uart.o(i.Hal_Uart2_Init) refers to at32f435_437_usart.o(i.usart_interrupt_enable) for usart_interrupt_enable
    hal_uart.o(i.Hal_Uart2_Init) refers to at32f435_437_usart.o(i.usart_enable) for usart_enable
    hal_uart.o(i.Hal_Uart3_Deinit) refers to at32f435_437_usart.o(i.usart_enable) for usart_enable
    hal_uart.o(i.Hal_Uart3_Deinit) refers to at32f435_437_usart.o(i.usart_interrupt_enable) for usart_interrupt_enable
    hal_uart.o(i.Hal_Uart3_Init) refers to at32f435_437_crm.o(i.crm_periph_clock_enable) for crm_periph_clock_enable
    hal_uart.o(i.Hal_Uart3_Init) refers to at32f435_437_gpio.o(i.gpio_default_para_init) for gpio_default_para_init
    hal_uart.o(i.Hal_Uart3_Init) refers to at32f435_437_gpio.o(i.gpio_init) for gpio_init
    hal_uart.o(i.Hal_Uart3_Init) refers to at32f435_437_gpio.o(i.gpio_pin_mux_config) for gpio_pin_mux_config
    hal_uart.o(i.Hal_Uart3_Init) refers to at32f435_437_misc.o(i.nvic_irq_enable) for nvic_irq_enable
    hal_uart.o(i.Hal_Uart3_Init) refers to at32f435_437_usart.o(i.usart_init) for usart_init
    hal_uart.o(i.Hal_Uart3_Init) refers to at32f435_437_usart.o(i.usart_transmitter_enable) for usart_transmitter_enable
    hal_uart.o(i.Hal_Uart3_Init) refers to at32f435_437_usart.o(i.usart_receiver_enable) for usart_receiver_enable
    hal_uart.o(i.Hal_Uart3_Init) refers to at32f435_437_usart.o(i.usart_transmit_receive_pin_swap) for usart_transmit_receive_pin_swap
    hal_uart.o(i.Hal_Uart3_Init) refers to at32f435_437_usart.o(i.usart_interrupt_enable) for usart_interrupt_enable
    hal_uart.o(i.Hal_Uart3_Init) refers to at32f435_437_usart.o(i.usart_enable) for usart_enable
    hal_uart.o(i.Hal_Uart4_Deinit) refers to at32f435_437_usart.o(i.usart_enable) for usart_enable
    hal_uart.o(i.Hal_Uart4_Deinit) refers to at32f435_437_usart.o(i.usart_interrupt_enable) for usart_interrupt_enable
    hal_uart.o(i.Hal_Uart4_Init) refers to at32f435_437_crm.o(i.crm_periph_clock_enable) for crm_periph_clock_enable
    hal_uart.o(i.Hal_Uart4_Init) refers to at32f435_437_gpio.o(i.gpio_default_para_init) for gpio_default_para_init
    hal_uart.o(i.Hal_Uart4_Init) refers to at32f435_437_gpio.o(i.gpio_init) for gpio_init
    hal_uart.o(i.Hal_Uart4_Init) refers to at32f435_437_gpio.o(i.gpio_pin_mux_config) for gpio_pin_mux_config
    hal_uart.o(i.Hal_Uart4_Init) refers to at32f435_437_misc.o(i.nvic_irq_enable) for nvic_irq_enable
    hal_uart.o(i.Hal_Uart4_Init) refers to at32f435_437_usart.o(i.usart_init) for usart_init
    hal_uart.o(i.Hal_Uart4_Init) refers to at32f435_437_usart.o(i.usart_transmitter_enable) for usart_transmitter_enable
    hal_uart.o(i.Hal_Uart4_Init) refers to at32f435_437_usart.o(i.usart_receiver_enable) for usart_receiver_enable
    hal_uart.o(i.Hal_Uart4_Init) refers to at32f435_437_usart.o(i.usart_interrupt_enable) for usart_interrupt_enable
    hal_uart.o(i.Hal_Uart4_Init) refers to at32f435_437_usart.o(i.usart_enable) for usart_enable
    hal_uart.o(i.fputc) refers to at32f435_437_usart.o(i.usart_data_transmit) for usart_data_transmit
    hal_uart.o(i.fputc) refers to at32f435_437_usart.o(i.usart_flag_get) for usart_flag_get
    hal_uart.o(i.uart1_data_send) refers to at32f435_437_usart.o(i.usart_data_transmit) for usart_data_transmit
    hal_uart.o(i.uart1_data_send) refers to at32f435_437_usart.o(i.usart_flag_get) for usart_flag_get
    hal_uart.o(i.uart1_tx_string) refers to at32f435_437_usart.o(i.usart_data_transmit) for usart_data_transmit
    hal_uart.o(i.uart1_tx_string) refers to at32f435_437_usart.o(i.usart_flag_get) for usart_flag_get
    hal_uart.o(i.uart2_data_send) refers to at32f435_437_usart.o(i.usart_data_transmit) for usart_data_transmit
    hal_uart.o(i.uart2_data_send) refers to at32f435_437_usart.o(i.usart_flag_get) for usart_flag_get
    hal_uart.o(i.uart2_tx_string) refers to at32f435_437_usart.o(i.usart_data_transmit) for usart_data_transmit
    hal_uart.o(i.uart2_tx_string) refers to at32f435_437_usart.o(i.usart_flag_get) for usart_flag_get
    hal_uart.o(i.uart3_data_send) refers to at32f435_437_usart.o(i.usart_data_transmit) for usart_data_transmit
    hal_uart.o(i.uart3_data_send) refers to at32f435_437_usart.o(i.usart_flag_get) for usart_flag_get
    hal_uart.o(i.uart3_tx_string) refers to at32f435_437_usart.o(i.usart_data_transmit) for usart_data_transmit
    hal_uart.o(i.uart3_tx_string) refers to at32f435_437_usart.o(i.usart_flag_get) for usart_flag_get
    hal_uart.o(i.uart4_data_send) refers to at32f435_437_usart.o(i.usart_data_transmit) for usart_data_transmit
    hal_uart.o(i.uart4_data_send) refers to at32f435_437_usart.o(i.usart_flag_get) for usart_flag_get
    hal_uart.o(i.uart4_tx_string) refers to at32f435_437_usart.o(i.usart_data_transmit) for usart_data_transmit
    hal_uart.o(i.uart4_tx_string) refers to at32f435_437_usart.o(i.usart_flag_get) for usart_flag_get
    hal_sleep.o(i.ERTCAlarm_IRQHandler) refers to at32f435_437_ertc.o(i.ertc_interrupt_flag_get) for ertc_interrupt_flag_get
    hal_sleep.o(i.ERTCAlarm_IRQHandler) refers to at32f435_437_ertc.o(i.ertc_flag_clear) for ertc_flag_clear
    hal_sleep.o(i.ERTCAlarm_IRQHandler) refers to at32f435_437_exint.o(i.exint_flag_clear) for exint_flag_clear
    hal_sleep.o(i.Hal_Alarm_Deinit) refers to at32f435_437_ertc.o(i.ertc_interrupt_enable) for ertc_interrupt_enable
    hal_sleep.o(i.Hal_Alarm_Deinit) refers to at32f435_437_ertc.o(i.ertc_alarm_enable) for ertc_alarm_enable
    hal_sleep.o(i.Hal_Alarm_Init) refers to at32f435_437_ertc.o(i.ertc_calendar_get) for ertc_calendar_get
    hal_sleep.o(i.Hal_Alarm_Init) refers to hal_sleep.o(i.Hal_Ertc_Alarm_Config) for Hal_Ertc_Alarm_Config
    hal_sleep.o(i.Hal_Alarm_Init) refers to at32f435_437_ertc.o(i.ertc_alarm_enable) for ertc_alarm_enable
    hal_sleep.o(i.Hal_Alarm_Init) refers to printfa.o(i.__0printf) for __2printf
    hal_sleep.o(i.Hal_Alarm_Init) refers to at32f435_437_ertc.o(i.ertc_alarm_set) for ertc_alarm_set
    hal_sleep.o(i.Hal_Alarm_Init) refers to at32f435_437_misc.o(i.nvic_irq_enable) for nvic_irq_enable
    hal_sleep.o(i.Hal_Alarm_Init) refers to at32f435_437_ertc.o(i.ertc_interrupt_enable) for ertc_interrupt_enable
    hal_sleep.o(i.Hal_Config_Sys_From_Deep_Sleep) refers to hal_sleep.o(i.Hal_System_Clock_Recover) for Hal_System_Clock_Recover
    hal_sleep.o(i.Hal_Ertc_Alarm_Config) refers to at32f435_437_exint.o(i.exint_init) for exint_init
    hal_sleep.o(i.Hal_Ertc_Alarm_Config) refers to at32f435_437_ertc.o(i.ertc_alarm_mask_set) for ertc_alarm_mask_set
    hal_sleep.o(i.Hal_Ertc_Alarm_Config) refers to at32f435_437_ertc.o(i.ertc_alarm_week_date_select) for ertc_alarm_week_date_select
    hal_sleep.o(i.Hal_Feed_Dog) refers to at32f435_437_wwdt.o(i.wwdt_counter_set) for wwdt_counter_set
    hal_sleep.o(i.Hal_Get_Into_Sleep) refers to hal_uart.o(i.Hal_Uart1_Deinit) for Hal_Uart1_Deinit
    hal_sleep.o(i.Hal_Get_Into_Sleep) refers to hal_uart.o(i.Hal_Uart2_Deinit) for Hal_Uart2_Deinit
    hal_sleep.o(i.Hal_Get_Into_Sleep) refers to hal_uart.o(i.Hal_Uart3_Deinit) for Hal_Uart3_Deinit
    hal_sleep.o(i.Hal_Get_Into_Sleep) refers to hal_uart.o(i.Hal_Uart4_Deinit) for Hal_Uart4_Deinit
    hal_sleep.o(i.Hal_Get_Into_Sleep) refers to at32f435_437_gpio.o(i.gpio_bits_reset) for gpio_bits_reset
    hal_sleep.o(i.Hal_Get_Into_Sleep) refers to at32f435_437_gpio.o(i.gpio_bits_set) for gpio_bits_set
    hal_sleep.o(i.Hal_Get_Into_Sleep) refers to hal_sleep.o(i.Hal_Alarm_Init) for Hal_Alarm_Init
    hal_sleep.o(i.Hal_Get_Into_Sleep) refers to hal_keyled.o(i.Hal_Exit_Side_Init) for Hal_Exit_Side_Init
    hal_sleep.o(i.Hal_Get_Into_Sleep) refers to hal_keyled.o(i.Hal_Exit_Bot_Init) for Hal_Exit_Bot_Init
    hal_sleep.o(i.Hal_Get_Into_Sleep) refers to hal_keyled.o(i.Hal_Exit_Slide_Init) for Hal_Exit_Slide_Init
    hal_sleep.o(i.Hal_Get_Into_Sleep) refers to at32f435_437_pwc.o(i.pwc_deep_sleep_mode_enter) for pwc_deep_sleep_mode_enter
    hal_sleep.o(i.Hal_Get_Into_Sleep) refers to hal_sleep.o(i.Hal_System_Clock_Recover) for Hal_System_Clock_Recover
    hal_sleep.o(i.Hal_Get_Into_Sleep) refers to hal_keyled.o(i.Hal_Exit_Side_Deinit) for Hal_Exit_Side_Deinit
    hal_sleep.o(i.Hal_Get_Into_Sleep) refers to hal_keyled.o(i.Hal_Exit_Bot_Deinit) for Hal_Exit_Bot_Deinit
    hal_sleep.o(i.Hal_Get_Into_Sleep) refers to hal_keyled.o(i.Hal_Exit_Slide_Deinit) for Hal_Exit_Slide_Deinit
    hal_sleep.o(i.Hal_Get_Into_Sleep) refers to hal_sleep.o(.data) for .data
    hal_sleep.o(i.Hal_RTC_init) refers to at32f435_437_crm.o(i.crm_periph_clock_enable) for crm_periph_clock_enable
    hal_sleep.o(i.Hal_RTC_init) refers to at32f435_437_pwc.o(i.pwc_battery_powered_domain_access) for pwc_battery_powered_domain_access
    hal_sleep.o(i.Hal_RTC_init) refers to at32f435_437_crm.o(i.crm_battery_powered_domain_reset) for crm_battery_powered_domain_reset
    hal_sleep.o(i.Hal_RTC_init) refers to at32f435_437_crm.o(i.crm_clock_source_enable) for crm_clock_source_enable
    hal_sleep.o(i.Hal_RTC_init) refers to at32f435_437_crm.o(i.crm_flag_get) for crm_flag_get
    hal_sleep.o(i.Hal_RTC_init) refers to at32f435_437_crm.o(i.crm_ertc_clock_select) for crm_ertc_clock_select
    hal_sleep.o(i.Hal_RTC_init) refers to at32f435_437_crm.o(i.crm_ertc_clock_enable) for crm_ertc_clock_enable
    hal_sleep.o(i.Hal_RTC_init) refers to at32f435_437_ertc.o(i.ertc_reset) for ertc_reset
    hal_sleep.o(i.Hal_RTC_init) refers to at32f435_437_ertc.o(i.ertc_wait_update) for ertc_wait_update
    hal_sleep.o(i.Hal_RTC_init) refers to at32f435_437_ertc.o(i.ertc_divider_set) for ertc_divider_set
    hal_sleep.o(i.Hal_RTC_init) refers to at32f435_437_ertc.o(i.ertc_hour_mode_set) for ertc_hour_mode_set
    hal_sleep.o(i.Hal_RTC_init) refers to at32f435_437_ertc.o(i.ertc_date_set) for ertc_date_set
    hal_sleep.o(i.Hal_RTC_init) refers to at32f435_437_ertc.o(i.ertc_time_set) for ertc_time_set
    hal_sleep.o(i.Hal_System_Clock_Recover) refers to hal_sleep.o(i.delay_us) for delay_us
    hal_sleep.o(i.Hal_System_Clock_Recover) refers to at32f435_437_crm.o(i.crm_clock_source_enable) for crm_clock_source_enable
    hal_sleep.o(i.Hal_System_Clock_Recover) refers to at32f435_437_crm.o(i.crm_hext_stable_wait) for crm_hext_stable_wait
    hal_sleep.o(i.Hal_System_Clock_Recover) refers to at32f435_437_crm.o(i.crm_flag_get) for crm_flag_get
    hal_sleep.o(i.Hal_System_Clock_Recover) refers to at32f435_437_crm.o(i.crm_auto_step_mode_enable) for crm_auto_step_mode_enable
    hal_sleep.o(i.Hal_System_Clock_Recover) refers to at32f435_437_crm.o(i.crm_sysclk_switch) for crm_sysclk_switch
    hal_sleep.o(i.Hal_System_Clock_Recover) refers to at32f435_437_crm.o(i.crm_sysclk_switch_status_get) for crm_sysclk_switch_status_get
    hal_sleep.o(i.Hal_System_Clock_Recover) refers to hal_sleep.o(.data) for .data
    hal_sleep.o(i.Hal_Wdt_Deinit) refers to at32f435_437_wwdt.o(i.wwdt_reset) for wwdt_reset
    hal_sleep.o(i.Hal_Wdt_Init) refers to at32f435_437_crm.o(i.crm_periph_clock_enable) for crm_periph_clock_enable
    hal_sleep.o(i.Hal_Wdt_Init) refers to at32f435_437_wwdt.o(i.wwdt_divider_set) for wwdt_divider_set
    hal_sleep.o(i.Hal_Wdt_Init) refers to at32f435_437_wwdt.o(i.wwdt_enable) for wwdt_enable
    hal_sleep.o(i.RTC_Fre_Calib) refers to hal_sleep.o(i.lick_frequency_get) for lick_frequency_get
    hal_sleep.o(i.RTC_Fre_Calib) refers to at32f435_437_ertc.o(i.ertc_divider_set) for ertc_divider_set
    hal_sleep.o(i.RTC_Fre_Calib) refers to hal_sleep.o(.data) for .data
    hal_sleep.o(i.RTC_Printf) refers to at32f435_437_ertc.o(i.ertc_calendar_get) for ertc_calendar_get
    hal_sleep.o(i.RTC_Printf) refers to printfa.o(i.__0printf) for __2printf
    hal_sleep.o(i.RTC_Printf) refers to hal_sleep.o(.data) for .data
    hal_sleep.o(i.TMR5_GLOBAL_IRQHandler) refers to at32f435_437_tmr.o(i.tmr_interrupt_flag_get) for tmr_interrupt_flag_get
    hal_sleep.o(i.TMR5_GLOBAL_IRQHandler) refers to at32f435_437_tmr.o(i.tmr_channel_value_get) for tmr_channel_value_get
    hal_sleep.o(i.TMR5_GLOBAL_IRQHandler) refers to at32f435_437_tmr.o(i.tmr_flag_clear) for tmr_flag_clear
    hal_sleep.o(i.TMR5_GLOBAL_IRQHandler) refers to hal_sleep.o(.data) for .data
    hal_sleep.o(i.lick_frequency_get) refers to at32f435_437_crm.o(i.crm_periph_clock_enable) for crm_periph_clock_enable
    hal_sleep.o(i.lick_frequency_get) refers to at32f435_437_tmr.o(i.tmr_iremap_config) for tmr_iremap_config
    hal_sleep.o(i.lick_frequency_get) refers to at32f435_437_tmr.o(i.tmr_div_value_set) for tmr_div_value_set
    hal_sleep.o(i.lick_frequency_get) refers to at32f435_437_tmr.o(i.tmr_event_sw_trigger) for tmr_event_sw_trigger
    hal_sleep.o(i.lick_frequency_get) refers to at32f435_437_tmr.o(i.tmr_input_channel_init) for tmr_input_channel_init
    hal_sleep.o(i.lick_frequency_get) refers to at32f435_437_tmr.o(i.tmr_input_channel_divider_set) for tmr_input_channel_divider_set
    hal_sleep.o(i.lick_frequency_get) refers to at32f435_437_misc.o(i.nvic_irq_enable) for nvic_irq_enable
    hal_sleep.o(i.lick_frequency_get) refers to at32f435_437_tmr.o(i.tmr_counter_enable) for tmr_counter_enable
    hal_sleep.o(i.lick_frequency_get) refers to at32f435_437_tmr.o(i.tmr_interrupt_enable) for tmr_interrupt_enable
    hal_sleep.o(i.lick_frequency_get) refers to at32f435_437_tmr.o(i.tmr_reset) for tmr_reset
    hal_sleep.o(i.lick_frequency_get) refers to at32f435_437_crm.o(i.crm_clocks_freq_get) for crm_clocks_freq_get
    hal_sleep.o(i.lick_frequency_get) refers to hal_sleep.o(.data) for .data
    hal_flash.o(i.Hal_Falsh_Erase_More_Page) refers to at32f435_437_flash.o(i.flash_sector_erase) for flash_sector_erase
    hal_flash.o(i.Hal_Falsh_Jump) refers to hal_flash.o(i.app_clear_sys_status) for app_clear_sys_status
    hal_flash.o(i.Hal_Falsh_Jump) refers to at32f435_437_crm.o(i.crm_periph_clock_enable) for crm_periph_clock_enable
    hal_flash.o(i.Hal_Falsh_Jump) refers to at32f435_437_misc.o(i.nvic_irq_disable) for nvic_irq_disable
    hal_flash.o(i.Hal_Falsh_Jump) refers to hal_flash.o(.data) for .data
    hal_flash.o(i.Hal_Flash_Init) refers to at32f435_437_flash.o(i.flash_unlock) for flash_unlock
    hal_flash.o(i.Hal_Flash_Write_More_Word) refers to at32f435_437_flash.o(i.flash_word_program) for flash_word_program
    hal_flash.o(i.Hal_Flash_Write_Word) refers to at32f435_437_flash.o(i.flash_unlock) for flash_unlock
    hal_flash.o(i.Hal_Flash_Write_Word) refers to at32f435_437_flash.o(i.flash_sector_erase) for flash_sector_erase
    hal_flash.o(i.Hal_Flash_Write_Word) refers to at32f435_437_flash.o(i.flash_word_program) for flash_word_program
    bsp_keyled.o(i.Bsp_Bat_Vol_Display) refers to bsp_batvol.o(i.Bsp_Get_BatPercent) for Bsp_Get_BatPercent
    bsp_keyled.o(i.Bsp_Bat_Vol_Display) refers to hal_keyled.o(i.Hal_Bat_Led_Display_Enable) for Hal_Bat_Led_Display_Enable
    bsp_keyled.o(i.Bsp_Bat_Vol_Display) refers to bsp_keyled.o(.data) for .data
    bsp_keyled.o(i.Bsp_Error_Led_Display) refers to hal_keyled.o(i.Hal_Error_Led_Display_Enable) for Hal_Error_Led_Display_Enable
    bsp_keyled.o(i.Bsp_Error_Led_Display) refers to bsp_keyled.o(.bss) for .bss
    bsp_keyled.o(i.Bsp_Get_Pow_State) refers to bsp_keyled.o(.data) for .data
    bsp_keyled.o(i.Bsp_Get_Sys_State) refers to bsp_keyled.o(.bss) for .bss
    bsp_keyled.o(i.Bsp_MagKey_Scan) refers to hal_keyled.o(i.Hal_Get_MagKey_State) for Hal_Get_MagKey_State
    bsp_keyled.o(i.Bsp_MagKey_Scan) refers to printfa.o(i.__0printf) for __2printf
    bsp_keyled.o(i.Bsp_MagKey_Scan) refers to at32f435_437_gpio.o(i.gpio_bits_set) for gpio_bits_set
    bsp_keyled.o(i.Bsp_MagKey_Scan) refers to bsp_keyled.o(.data) for .data
    bsp_keyled.o(i.Bsp_MagKey_Scan) refers to bsp_keyled.o(.bss) for .bss
    bsp_keyled.o(i.Bsp_Stop_Bat_Vol_Display) refers to hal_keyled.o(i.Hal_Bat_Led_Display_Enable) for Hal_Bat_Led_Display_Enable
    bsp_keyled.o(i.Bsp_Stop_Bat_Vol_Display) refers to bsp_keyled.o(.data) for .data
    bsp_keyled.o(i.Bsp_Sys_State_Ctrl) refers to hal_keyled.o(i.Hal_Get_SideKey_State) for Hal_Get_SideKey_State
    bsp_keyled.o(i.Bsp_Sys_State_Ctrl) refers to hal_keyled.o(i.Hal_Get_SlideKey_State) for Hal_Get_SlideKey_State
    bsp_keyled.o(i.Bsp_Sys_State_Ctrl) refers to printfa.o(i.__0printf) for __2printf
    bsp_keyled.o(i.Bsp_Sys_State_Ctrl) refers to bsp_keyled.o(i.Key_Start_SOS_Mode) for Key_Start_SOS_Mode
    bsp_keyled.o(i.Bsp_Sys_State_Ctrl) refers to bsp_keyled.o(i.Key_Start_Move_Mode) for Key_Start_Move_Mode
    bsp_keyled.o(i.Bsp_Sys_State_Ctrl) refers to bsp_keyled.o(i.Key_Start_PULL_Mode) for Key_Start_PULL_Mode
    bsp_keyled.o(i.Bsp_Sys_State_Ctrl) refers to bsp_keyled.o(i.Key_Start_Normal_Mode) for Key_Start_Normal_Mode
    bsp_keyled.o(i.Bsp_Sys_State_Ctrl) refers to bsp_keyled.o(.data) for .data
    bsp_keyled.o(i.Bsp_Sys_State_Ctrl) refers to bsp_keyled.o(.bss) for .bss
    bsp_keyled.o(i.Bsp_Vbat_Chag_Ctrl) refers to hal_powmanage.o(i.Hal_Get_ChagFull_State) for Hal_Get_ChagFull_State
    bsp_keyled.o(i.Bsp_Vbat_Chag_Ctrl) refers to hal_powmanage.o(i.Hal_Get_USB_In_State) for Hal_Get_USB_In_State
    bsp_keyled.o(i.Bsp_Vbat_Chag_Ctrl) refers to bsp_keyled.o(i.Sys_Start_Charge_Mode) for Sys_Start_Charge_Mode
    bsp_keyled.o(i.Bsp_Vbat_Chag_Ctrl) refers to bsp_batvol.o(i.Bps_Start_Always_Updata_BatVol_Percent) for Bps_Start_Always_Updata_BatVol_Percent
    bsp_keyled.o(i.Bsp_Vbat_Chag_Ctrl) refers to hal_keyled.o(i.Hal_Bat_Led_Display_Enable) for Hal_Bat_Led_Display_Enable
    bsp_keyled.o(i.Bsp_Vbat_Chag_Ctrl) refers to bsp_batvol.o(i.Bsp_Get_BatPercent) for Bsp_Get_BatPercent
    bsp_keyled.o(i.Bsp_Vbat_Chag_Ctrl) refers to hal_keyled.o(i.Hal_Bat_Led_Heartbeat) for Hal_Bat_Led_Heartbeat
    bsp_keyled.o(i.Bsp_Vbat_Chag_Ctrl) refers to bsp_keyled.o(i.Sys_Stop_Charge_Mode) for Sys_Stop_Charge_Mode
    bsp_keyled.o(i.Bsp_Vbat_Chag_Ctrl) refers to bsp_keyled.o(.data) for .data
    bsp_keyled.o(i.Key_Start_Move_Mode) refers to printfa.o(i.__0printf) for __2printf
    bsp_keyled.o(i.Key_Start_Move_Mode) refers to bsp_rdsssend.o(i.Bsp_Start_Move_Mode) for Bsp_Start_Move_Mode
    bsp_keyled.o(i.Key_Start_Move_Mode) refers to bsp_keyled.o(.bss) for .bss
    bsp_keyled.o(i.Key_Start_Normal_Mode) refers to printfa.o(i.__0printf) for __2printf
    bsp_keyled.o(i.Key_Start_Normal_Mode) refers to bsp_rdsssend.o(i.Bsp_Start_Normal_Mode) for Bsp_Start_Normal_Mode
    bsp_keyled.o(i.Key_Start_Normal_Mode) refers to bsp_keyled.o(.bss) for .bss
    bsp_keyled.o(i.Key_Start_PULL_Mode) refers to printfa.o(i.__0printf) for __2printf
    bsp_keyled.o(i.Key_Start_PULL_Mode) refers to bsp_rdsssend.o(i.Bsp_Start_PULL_Mode) for Bsp_Start_PULL_Mode
    bsp_keyled.o(i.Key_Start_PULL_Mode) refers to bsp_keyled.o(.bss) for .bss
    bsp_keyled.o(i.Key_Start_SOS_Mode) refers to printfa.o(i.__0printf) for __2printf
    bsp_keyled.o(i.Key_Start_SOS_Mode) refers to bsp_rdsssend.o(i.Bsp_Start_SOS_Mode) for Bsp_Start_SOS_Mode
    bsp_keyled.o(i.Key_Start_SOS_Mode) refers to bsp_keyled.o(.bss) for .bss
    bsp_keyled.o(i.Sys_Start_Charge_Mode) refers to printfa.o(i.__0printf) for __2printf
    bsp_keyled.o(i.Sys_Start_Charge_Mode) refers to at32f435_437_gpio.o(i.gpio_bits_set) for gpio_bits_set
    bsp_keyled.o(i.Sys_Start_Charge_Mode) refers to hal_uart.o(i.Hal_Uart3_Init) for Hal_Uart3_Init
    bsp_keyled.o(i.Sys_Start_Charge_Mode) refers to bsp_keyled.o(.data) for .data
    bsp_keyled.o(i.Sys_Stop_Charge_Mode) refers to printfa.o(i.__0printf) for __2printf
    bsp_keyled.o(i.Sys_Stop_Charge_Mode) refers to hal_uart.o(i.Hal_Uart3_Deinit) for Hal_Uart3_Deinit
    bsp_keyled.o(i.Sys_Stop_Charge_Mode) refers to bsp_keyled.o(.data) for .data
    bsp_uartrec.o(i.Bsp_Receive_Uart1_Fifo_Data) refers to api_fifo.o(i.lm_fifo_get_node) for lm_fifo_get_node
    bsp_uartrec.o(i.Bsp_Receive_Uart1_Fifo_Data) refers to api_fifo.o(i.lm_fifo_delete_node) for lm_fifo_delete_node
    bsp_uartrec.o(i.Bsp_Receive_Uart1_Fifo_Data) refers to bsp_gnssparse.o(i.Bsp_Gnss_Parse_Byte) for Bsp_Gnss_Parse_Byte
    bsp_uartrec.o(i.Bsp_Receive_Uart1_Fifo_Data) refers to bsp_uartrec.o(.bss) for .bss
    bsp_uartrec.o(i.Bsp_Receive_Uart2_Fifo_Data) refers to api_fifo.o(i.lm_fifo_get_node) for lm_fifo_get_node
    bsp_uartrec.o(i.Bsp_Receive_Uart2_Fifo_Data) refers to api_fifo.o(i.lm_fifo_delete_node) for lm_fifo_delete_node
    bsp_uartrec.o(i.Bsp_Receive_Uart2_Fifo_Data) refers to bsp_uartrec.o(.bss) for .bss
    bsp_uartrec.o(i.Bsp_Receive_Uart3_Fifo_Data) refers to api_fifo.o(i.lm_fifo_get_node) for lm_fifo_get_node
    bsp_uartrec.o(i.Bsp_Receive_Uart3_Fifo_Data) refers to api_fifo.o(i.lm_fifo_delete_node) for lm_fifo_delete_node
    bsp_uartrec.o(i.Bsp_Receive_Uart3_Fifo_Data) refers to bsp_config.o(i.Bsp_Port_Parse_Byte) for Bsp_Port_Parse_Byte
    bsp_uartrec.o(i.Bsp_Receive_Uart3_Fifo_Data) refers to bsp_uartrec.o(.bss) for .bss
    bsp_uartrec.o(i.Bsp_Receive_Uart4_Fifo_Data) refers to api_fifo.o(i.lm_fifo_get_node) for lm_fifo_get_node
    bsp_uartrec.o(i.Bsp_Receive_Uart4_Fifo_Data) refers to api_fifo.o(i.lm_fifo_delete_node) for lm_fifo_delete_node
    bsp_uartrec.o(i.Bsp_Receive_Uart4_Fifo_Data) refers to bsp_rdssparse.o(i.Bsp_Rdss_Parse_Byte) for Bsp_Rdss_Parse_Byte
    bsp_uartrec.o(i.Bsp_Receive_Uart4_Fifo_Data) refers to bsp_uartrec.o(.bss) for .bss
    bsp_uartrec.o(i.Bsp_Uart_Fifo_Init) refers to api_fifo.o(i.lm_fifo_init) for lm_fifo_init
    bsp_uartrec.o(i.Bsp_Uart_Fifo_Init) refers to bsp_uartrec.o(.bss) for .bss
    bsp_uartrec.o(i.UART4_IRQHandler) refers to at32f435_437_usart.o(i.usart_interrupt_flag_get) for usart_interrupt_flag_get
    bsp_uartrec.o(i.UART4_IRQHandler) refers to at32f435_437_usart.o(i.usart_flag_clear) for usart_flag_clear
    bsp_uartrec.o(i.UART4_IRQHandler) refers to at32f435_437_usart.o(i.usart_data_receive) for usart_data_receive
    bsp_uartrec.o(i.UART4_IRQHandler) refers to api_fifo.o(i.lm_fifo_add_node_impolite) for lm_fifo_add_node_impolite
    bsp_uartrec.o(i.UART4_IRQHandler) refers to bsp_uartrec.o(.bss) for .bss
    bsp_uartrec.o(i.USART1_IRQHandler) refers to at32f435_437_usart.o(i.usart_interrupt_flag_get) for usart_interrupt_flag_get
    bsp_uartrec.o(i.USART1_IRQHandler) refers to at32f435_437_usart.o(i.usart_flag_clear) for usart_flag_clear
    bsp_uartrec.o(i.USART1_IRQHandler) refers to at32f435_437_usart.o(i.usart_data_receive) for usart_data_receive
    bsp_uartrec.o(i.USART1_IRQHandler) refers to api_fifo.o(i.lm_fifo_add_node_impolite) for lm_fifo_add_node_impolite
    bsp_uartrec.o(i.USART1_IRQHandler) refers to bsp_uartrec.o(.bss) for .bss
    bsp_uartrec.o(i.USART2_IRQHandler) refers to at32f435_437_usart.o(i.usart_interrupt_flag_get) for usart_interrupt_flag_get
    bsp_uartrec.o(i.USART2_IRQHandler) refers to at32f435_437_usart.o(i.usart_flag_clear) for usart_flag_clear
    bsp_uartrec.o(i.USART2_IRQHandler) refers to at32f435_437_usart.o(i.usart_data_receive) for usart_data_receive
    bsp_uartrec.o(i.USART2_IRQHandler) refers to api_fifo.o(i.lm_fifo_add_node_impolite) for lm_fifo_add_node_impolite
    bsp_uartrec.o(i.USART2_IRQHandler) refers to bsp_uartrec.o(.bss) for .bss
    bsp_uartrec.o(i.USART3_IRQHandler) refers to at32f435_437_usart.o(i.usart_interrupt_flag_get) for usart_interrupt_flag_get
    bsp_uartrec.o(i.USART3_IRQHandler) refers to at32f435_437_usart.o(i.usart_flag_clear) for usart_flag_clear
    bsp_uartrec.o(i.USART3_IRQHandler) refers to at32f435_437_usart.o(i.usart_data_receive) for usart_data_receive
    bsp_uartrec.o(i.USART3_IRQHandler) refers to api_fifo.o(i.lm_fifo_add_node_impolite) for lm_fifo_add_node_impolite
    bsp_uartrec.o(i.USART3_IRQHandler) refers to bsp_uartrec.o(.bss) for .bss
    bsp_batvol.o(i.ADConvert) refers to hal_powmanage.o(i.Hal_Start_VBat_ADC_Convert) for Hal_Start_VBat_ADC_Convert
    bsp_batvol.o(i.ADConvert) refers to hal_powmanage.o(i.Hal_Get_ADC1_Value) for Hal_Get_ADC1_Value
    bsp_batvol.o(i.ADConvert) refers to bsp_batvol.o(i.Arithmetic_Average) for Arithmetic_Average
    bsp_batvol.o(i.ADConvert) refers to hal_powmanage.o(i.Hal_Start_VSloar_ADC_Convert) for Hal_Start_VSloar_ADC_Convert
    bsp_batvol.o(i.ADConvert) refers to hal_powmanage.o(i.Hal_Get_ADC2_Value) for Hal_Get_ADC2_Value
    bsp_batvol.o(i.ADConvert) refers to bsp_batvol.o(.data) for .data
    bsp_batvol.o(i.ADConvert) refers to bsp_batvol.o(.bss) for .bss
    bsp_batvol.o(i.Bps_Start_Always_Updata_BatVol_Percent) refers to hal_powmanage.o(i.Hal_BatVol_Init) for Hal_BatVol_Init
    bsp_batvol.o(i.Bps_Start_Always_Updata_BatVol_Percent) refers to bsp_batvol.o(.data) for .data
    bsp_batvol.o(i.Bps_Start_Once_Time_Updata_BatVol_Percent) refers to hal_powmanage.o(i.Hal_BatVol_Init) for Hal_BatVol_Init
    bsp_batvol.o(i.Bps_Start_Once_Time_Updata_BatVol_Percent) refers to bsp_batvol.o(.data) for .data
    bsp_batvol.o(i.Bps_Stop_Always_Updata_BatVol_Percent) refers to hal_powmanage.o(i.Hal_ADC_Deinit) for Hal_ADC_Deinit
    bsp_batvol.o(i.Bps_Stop_Always_Updata_BatVol_Percent) refers to bsp_batvol.o(.data) for .data
    bsp_batvol.o(i.Bsp_Get_BatADValue) refers to bsp_batvol.o(.bss) for .bss
    bsp_batvol.o(i.Bsp_Get_BatPercent) refers to bsp_batvol.o(.data) for .data
    bsp_batvol.o(i.Bsp_Get_BatVol) refers to bsp_batvol.o(.data) for .data
    bsp_batvol.o(i.Bsp_Get_SloarADValue) refers to bsp_batvol.o(.bss) for .bss
    bsp_batvol.o(i.Bsp_Get_SloarVol) refers to dfltui.o(.text) for __aeabi_ui2d
    bsp_batvol.o(i.Bsp_Get_SloarVol) refers to dmul.o(.text) for __aeabi_dmul
    bsp_batvol.o(i.Bsp_Get_SloarVol) refers to dfixui.o(.text) for __aeabi_d2uiz
    bsp_batvol.o(i.Bsp_Get_SloarVol) refers to bsp_batvol.o(.bss) for .bss
    bsp_batvol.o(i.Bsp_Get_SloarVolFloat) refers to dfltui.o(.text) for __aeabi_ui2d
    bsp_batvol.o(i.Bsp_Get_SloarVolFloat) refers to dmul.o(.text) for __aeabi_dmul
    bsp_batvol.o(i.Bsp_Get_SloarVolFloat) refers to d2f.o(.text) for __aeabi_d2f
    bsp_batvol.o(i.Bsp_Get_SloarVolFloat) refers to bsp_batvol.o(.bss) for .bss
    bsp_batvol.o(i.Bsp_Get_Temp) refers to dfltui.o(.text) for __aeabi_ui2d
    bsp_batvol.o(i.Bsp_Get_Temp) refers to dmul.o(.text) for __aeabi_dmul
    bsp_batvol.o(i.Bsp_Get_Temp) refers to dadd.o(.text) for __aeabi_drsub
    bsp_batvol.o(i.Bsp_Get_Temp) refers to ddiv.o(.text) for __aeabi_ddiv
    bsp_batvol.o(i.Bsp_Get_Temp) refers to bsp_batvol.o(.bss) for .bss
    bsp_batvol.o(i.Bsp_Get_Updata_Bat_Voltage_Once_State) refers to bsp_batvol.o(.data) for .data
    bsp_batvol.o(i.Bsp_Reset_BatPercent) refers to bsp_batvol.o(.data) for .data
    bsp_batvol.o(i.Bsp_Updata_Bat_Percent) refers to dfltui.o(.text) for __aeabi_ui2d
    bsp_batvol.o(i.Bsp_Updata_Bat_Percent) refers to dmul.o(.text) for __aeabi_dmul
    bsp_batvol.o(i.Bsp_Updata_Bat_Percent) refers to dfixui.o(.text) for __aeabi_d2uiz
    bsp_batvol.o(i.Bsp_Updata_Bat_Percent) refers to hal_powmanage.o(i.Hal_ADC_Deinit) for Hal_ADC_Deinit
    bsp_batvol.o(i.Bsp_Updata_Bat_Percent) refers to bsp_batvol.o(.data) for .data
    bsp_batvol.o(i.Bsp_Updata_Bat_Percent) refers to bsp_batvol.o(.bss) for .bss
    bsp_batvol.o(i.Bsp_Updata_Bat_Percent) refers to bsp_batvol.o(.constdata) for .constdata
    bsp_init.o(i.Fun_Bsp_Init) refers to bsp_uartrec.o(i.Bsp_Uart_Fifo_Init) for Bsp_Uart_Fifo_Init
    bsp_gnssparse.o(i.Api_Loca_Distance) refers to dmul.o(.text) for __aeabi_dmul
    bsp_gnssparse.o(i.Api_Loca_Distance) refers to dadd.o(.text) for __aeabi_dsub
    bsp_gnssparse.o(i.Api_Loca_Distance) refers to cos.o(i.__hardfp_cos) for __hardfp_cos
    bsp_gnssparse.o(i.Api_Loca_Distance) refers to sqrt.o(i.__hardfp_sqrt) for __hardfp_sqrt
    bsp_gnssparse.o(i.Api_Loca_Distance) refers to asin.o(i.__hardfp_asin) for __hardfp_asin
    bsp_gnssparse.o(i.Api_Location_Data_Turn) refers to dfixui.o(.text) for __aeabi_d2uiz
    bsp_gnssparse.o(i.Api_Location_Data_Turn) refers to dfltui.o(.text) for __aeabi_ui2d
    bsp_gnssparse.o(i.Api_Location_Data_Turn) refers to dmul.o(.text) for __aeabi_dmul
    bsp_gnssparse.o(i.Api_Location_Data_Turn) refers to ddiv.o(.text) for __aeabi_ddiv
    bsp_gnssparse.o(i.Api_Location_Data_Turn) refers to dadd.o(.text) for __aeabi_dadd
    bsp_gnssparse.o(i.Bsp_GNSS_Data_Deal) refers to memseta.o(.text) for __aeabi_memclr4
    bsp_gnssparse.o(i.Bsp_GNSS_Data_Deal) refers to bsp_gnssparse.o(i.Bsp_Gnss_Loca_If_Vaild) for Bsp_Gnss_Loca_If_Vaild
    bsp_gnssparse.o(i.Bsp_GNSS_Data_Deal) refers to bsp_gnssparse.o(i.Api_Location_Data_Turn) for Api_Location_Data_Turn
    bsp_gnssparse.o(i.Bsp_GNSS_Data_Deal) refers to cdcmple.o(.text) for __aeabi_cdcmpeq
    bsp_gnssparse.o(i.Bsp_GNSS_Data_Deal) refers to memcpya.o(.text) for __aeabi_memcpy4
    bsp_gnssparse.o(i.Bsp_GNSS_Data_Deal) refers to bsp_gnssparse.o(i.Api_Loca_Distance) for Api_Loca_Distance
    bsp_gnssparse.o(i.Bsp_GNSS_Data_Deal) refers to dfixui.o(.text) for __aeabi_d2uiz
    bsp_gnssparse.o(i.Bsp_GNSS_Data_Deal) refers to bsp_gnssparse.o(i.Api_Acc_Speed) for Api_Acc_Speed
    bsp_gnssparse.o(i.Bsp_GNSS_Data_Deal) refers to bsp_gnssparse.o(.data) for .data
    bsp_gnssparse.o(i.Bsp_GNSS_Data_Deal) refers to bsp_gnssparse.o(.bss) for .bss
    bsp_gnssparse.o(i.Bsp_GNSS_Data_Parse_String) refers to memcmp.o(.text) for memcmp
    bsp_gnssparse.o(i.Bsp_GNSS_Data_Parse_String) refers to printfa.o(i.__0printf) for __2printf
    bsp_gnssparse.o(i.Bsp_GNSS_Data_Parse_String) refers to bsp_log.o(i.Log_str_printf) for Log_str_printf
    bsp_gnssparse.o(i.Bsp_GNSS_Data_Parse_String) refers to bsp_gnssparse.o(i.Bsp_Gnss_RMC_Data_Split) for Bsp_Gnss_RMC_Data_Split
    bsp_gnssparse.o(i.Bsp_GNSS_Data_Parse_String) refers to bsp_gnssparse.o(i.Bsp_GNSS_Data_Deal) for Bsp_GNSS_Data_Deal
    bsp_gnssparse.o(i.Bsp_GNSS_Data_Parse_String) refers to bsp_gnssparse.o(.constdata) for .constdata
    bsp_gnssparse.o(i.Bsp_GNSS_Init) refers to bsp_gnssparse.o(i.Bsp_GNSS_Parse_Init) for Bsp_GNSS_Parse_Init
    bsp_gnssparse.o(i.Bsp_GNSS_Init) refers to bsp_gnssparse.o(i.Bsp_GNSS_Split_Data_Init) for Bsp_GNSS_Split_Data_Init
    bsp_gnssparse.o(i.Bsp_GNSS_Parse_Init) refers to memseta.o(.text) for __aeabi_memclr
    bsp_gnssparse.o(i.Bsp_GNSS_Parse_Init) refers to bsp_gnssparse.o(.bss) for .bss
    bsp_gnssparse.o(i.Bsp_GNSS_Split_Data_Init) refers to memseta.o(.text) for __aeabi_memclr4
    bsp_gnssparse.o(i.Bsp_GNSS_Split_Data_Init) refers to bsp_gnssparse.o(.bss) for .bss
    bsp_gnssparse.o(i.Bsp_GNSS_Split_Data_Init) refers to bsp_gnssparse.o(.data) for .data
    bsp_gnssparse.o(i.Bsp_Get_Location) refers to printfa.o(i.__0printf) for __2printf
    bsp_gnssparse.o(i.Bsp_Get_Location) refers to f2d.o(.text) for __aeabi_f2d
    bsp_gnssparse.o(i.Bsp_Get_Location) refers to bsp_gnssparse.o(.data) for .data
    bsp_gnssparse.o(i.Bsp_Get_Location) refers to bsp_gnssparse.o(.bss) for .bss
    bsp_gnssparse.o(i.Bsp_Gnss_Data_Check) refers to _scanf_int.o(.text) for _scanf_int
    bsp_gnssparse.o(i.Bsp_Gnss_Data_Check) refers to memseta.o(.text) for __aeabi_memclr4
    bsp_gnssparse.o(i.Bsp_Gnss_Data_Check) refers to memcpya.o(.text) for __aeabi_memcpy
    bsp_gnssparse.o(i.Bsp_Gnss_Data_Check) refers to __0sscanf.o(.text) for __0sscanf
    bsp_gnssparse.o(i.Bsp_Gnss_Data_Check) refers to bsp_gnssparse.o(i.Gnss_Check_Xor) for Gnss_Check_Xor
    bsp_gnssparse.o(i.Bsp_Gnss_Data_Check) refers to bsp_gnssparse.o(i.Bsp_GNSS_Data_Parse_String) for Bsp_GNSS_Data_Parse_String
    bsp_gnssparse.o(i.Bsp_Gnss_Data_Check) refers to bsp_gnssparse.o(i.Bsp_GNSS_Parse_Init) for Bsp_GNSS_Parse_Init
    bsp_gnssparse.o(i.Bsp_Gnss_Data_Check) refers to bsp_gnssparse.o(.bss) for .bss
    bsp_gnssparse.o(i.Bsp_Gnss_Loca_If_Vaild) refers to bsp_gnssparse.o(.bss) for .bss
    bsp_gnssparse.o(i.Bsp_Gnss_Parse_Byte) refers to bsp_gnssparse.o(i.Bsp_Gnss_Data_Check) for Bsp_Gnss_Data_Check
    bsp_gnssparse.o(i.Bsp_Gnss_Parse_Byte) refers to bsp_gnssparse.o(.bss) for .bss
    bsp_gnssparse.o(i.Bsp_Gnss_RMC_Data_Split) refers to memseta.o(.text) for __aeabi_memclr4
    bsp_gnssparse.o(i.Bsp_Gnss_RMC_Data_Split) refers to memcpya.o(.text) for __aeabi_memcpy
    bsp_gnssparse.o(i.Bsp_Gnss_RMC_Data_Split) refers to atof.o(i.__hardfp_atof) for __hardfp_atof
    bsp_gnssparse.o(i.Bsp_Gnss_RMC_Data_Split) refers to dfixui.o(.text) for __aeabi_d2uiz
    bsp_gnssparse.o(i.Bsp_Gnss_RMC_Data_Split) refers to d2f.o(.text) for __aeabi_d2f
    bsp_gnssparse.o(i.Bsp_Gnss_RMC_Data_Split) refers to bsp_gnssparse.o(.bss) for .bss
    bsp_rdssparse.o(i.Bsp_RDSS_Data_Parse_String) refers to memcmp.o(.text) for memcmp
    bsp_rdssparse.o(i.Bsp_RDSS_Data_Parse_String) refers to printfa.o(i.__0printf) for __2printf
    bsp_rdssparse.o(i.Bsp_RDSS_Data_Parse_String) refers to bsp_log.o(i.Log_str_printf) for Log_str_printf
    bsp_rdssparse.o(i.Bsp_RDSS_Data_Parse_String) refers to bsp_rdssparse.o(i.Bsp_Rdss_ICP_Data_Split) for Bsp_Rdss_ICP_Data_Split
    bsp_rdssparse.o(i.Bsp_RDSS_Data_Parse_String) refers to bsp_rdssparse.o(i.Bsp_Rdss_PWI_Data_Split) for Bsp_Rdss_PWI_Data_Split
    bsp_rdssparse.o(i.Bsp_RDSS_Data_Parse_String) refers to bsp_rdssparse.o(.constdata) for .constdata
    bsp_rdssparse.o(i.Bsp_RDSS_Init) refers to bsp_rdssparse.o(i.Bsp_RDSS_Parse_Init) for Bsp_RDSS_Parse_Init
    bsp_rdssparse.o(i.Bsp_RDSS_Init) refers to bsp_rdssparse.o(i.Bsp_RDSS_Split_Data_Init) for Bsp_RDSS_Split_Data_Init
    bsp_rdssparse.o(i.Bsp_RDSS_Parse_Init) refers to memseta.o(.text) for __aeabi_memclr
    bsp_rdssparse.o(i.Bsp_RDSS_Parse_Init) refers to bsp_rdssparse.o(.bss) for .bss
    bsp_rdssparse.o(i.Bsp_RDSS_Split_Data_Init) refers to memseta.o(.text) for __aeabi_memclr4
    bsp_rdssparse.o(i.Bsp_RDSS_Split_Data_Init) refers to bsp_rdssparse.o(.bss) for .bss
    bsp_rdssparse.o(i.Bsp_Rdss_Data_Check) refers to _scanf_int.o(.text) for _scanf_int
    bsp_rdssparse.o(i.Bsp_Rdss_Data_Check) refers to memseta.o(.text) for __aeabi_memclr4
    bsp_rdssparse.o(i.Bsp_Rdss_Data_Check) refers to memcpya.o(.text) for __aeabi_memcpy
    bsp_rdssparse.o(i.Bsp_Rdss_Data_Check) refers to __0sscanf.o(.text) for __0sscanf
    bsp_rdssparse.o(i.Bsp_Rdss_Data_Check) refers to bsp_rdssparse.o(i.Rdss_Check_Xor) for Rdss_Check_Xor
    bsp_rdssparse.o(i.Bsp_Rdss_Data_Check) refers to bsp_rdssparse.o(i.Bsp_RDSS_Data_Parse_String) for Bsp_RDSS_Data_Parse_String
    bsp_rdssparse.o(i.Bsp_Rdss_Data_Check) refers to bsp_rdssparse.o(i.Bsp_RDSS_Parse_Init) for Bsp_RDSS_Parse_Init
    bsp_rdssparse.o(i.Bsp_Rdss_Data_Check) refers to bsp_rdssparse.o(.bss) for .bss
    bsp_rdssparse.o(i.Bsp_Rdss_ICP_Data_Split) refers to memcpya.o(.text) for __aeabi_memcpy
    bsp_rdssparse.o(i.Bsp_Rdss_ICP_Data_Split) refers to api_common.o(i.convert_str_to_uint32) for convert_str_to_uint32
    bsp_rdssparse.o(i.Bsp_Rdss_ICP_Data_Split) refers to printfa.o(i.__0printf) for __2printf
    bsp_rdssparse.o(i.Bsp_Rdss_ICP_Data_Split) refers to bsp_config.o(i.Bsp_Get_CardID) for Bsp_Get_CardID
    bsp_rdssparse.o(i.Bsp_Rdss_ICP_Data_Split) refers to bsp_rdsssend.o(i.Bsp_Send_Get_CardID) for Bsp_Send_Get_CardID
    bsp_rdssparse.o(i.Bsp_Rdss_PWI_Data_Split) refers to memcpya.o(.text) for __aeabi_memcpy
    bsp_rdssparse.o(i.Bsp_Rdss_PWI_Data_Split) refers to atof.o(i.__hardfp_atof) for __hardfp_atof
    bsp_rdssparse.o(i.Bsp_Rdss_PWI_Data_Split) refers to dfixui.o(.text) for __aeabi_d2uiz
    bsp_rdssparse.o(i.Bsp_Rdss_PWI_Data_Split) refers to memseta.o(.text) for __aeabi_memclr4
    bsp_rdssparse.o(i.Bsp_Rdss_PWI_Data_Split) refers to bsp_rdssparse.o(i.Bsp_Rdss_Signal_Valid) for Bsp_Rdss_Signal_Valid
    bsp_rdssparse.o(i.Bsp_Rdss_PWI_Data_Split) refers to bsp_rdssparse.o(.bss) for .bss
    bsp_rdssparse.o(i.Bsp_Rdss_Parse_Byte) refers to bsp_rdssparse.o(i.Bsp_Rdss_Data_Check) for Bsp_Rdss_Data_Check
    bsp_rdssparse.o(i.Bsp_Rdss_Parse_Byte) refers to bsp_rdssparse.o(.bss) for .bss
    bsp_rdssparse.o(i.Bsp_Rdss_Signal_Is_Ok) refers to bsp_rdssparse.o(.bss) for .bss
    bsp_rdssparse.o(i.Bsp_Rdss_Signal_Valid) refers to cdrcmple.o(.text) for __aeabi_cdrcmple
    bsp_rdssparse.o(i.Bsp_Rdss_Signal_Valid) refers to bsp_rdssparse.o(.bss) for .bss
    bsp_rdsssend.o(i.API_Funftoa) refers to cdcmple.o(.text) for __aeabi_cdcmple
    bsp_rdsssend.o(i.API_Funftoa) refers to cdrcmple.o(.text) for __aeabi_cdrcmple
    bsp_rdsssend.o(i.API_Funftoa) refers to memseta.o(.text) for __aeabi_memclr
    bsp_rdsssend.o(i.API_Funftoa) refers to dfixui.o(.text) for __aeabi_d2uiz
    bsp_rdsssend.o(i.API_Funftoa) refers to dfltui.o(.text) for __aeabi_ui2d
    bsp_rdsssend.o(i.API_Funftoa) refers to dadd.o(.text) for __aeabi_drsub
    bsp_rdsssend.o(i.API_Funftoa) refers to dmul.o(.text) for __aeabi_dmul
    bsp_rdsssend.o(i.Bsp_Add_Loca_Queue) refers to memseta.o(.text) for __aeabi_memclr
    bsp_rdsssend.o(i.Bsp_Add_Loca_Queue) refers to bsp_batvol.o(i.Bsp_Get_BatPercent) for Bsp_Get_BatPercent
    bsp_rdsssend.o(i.Bsp_Add_Loca_Queue) refers to bsp_batvol.o(i.Bsp_Get_SloarVolFloat) for Bsp_Get_SloarVolFloat
    bsp_rdsssend.o(i.Bsp_Add_Loca_Queue) refers to bsp_batvol.o(i.Bsp_Get_Temp) for Bsp_Get_Temp
    bsp_rdsssend.o(i.Bsp_Add_Loca_Queue) refers to bsp_gnssparse.o(i.Bsp_Get_Location) for Bsp_Get_Location
    bsp_rdsssend.o(i.Bsp_Add_Loca_Queue) refers to bsp_keyled.o(i.Bsp_Get_Sys_State) for Bsp_Get_Sys_State
    bsp_rdsssend.o(i.Bsp_Add_Loca_Queue) refers to bsp_rdsssend.o(i.API_Funftoa) for API_Funftoa
    bsp_rdsssend.o(i.Bsp_Add_Loca_Queue) refers to api_common.o(i.TimeTurn) for TimeTurn
    bsp_rdsssend.o(i.Bsp_Add_Loca_Queue) refers to f2d.o(.text) for __aeabi_f2d
    bsp_rdsssend.o(i.Bsp_Add_Loca_Queue) refers to bsp_rdsssend.o(i.Bsp_Float_to_Buf) for Bsp_Float_to_Buf
    bsp_rdsssend.o(i.Bsp_Add_Loca_Queue) refers to cdrcmple.o(.text) for __aeabi_cdrcmple
    bsp_rdsssend.o(i.Bsp_Add_Loca_Queue) refers to api_common.o(i.Fundtoa) for Fundtoa
    bsp_rdsssend.o(i.Bsp_Add_Loca_Queue) refers to cdcmple.o(.text) for __aeabi_cdcmpeq
    bsp_rdsssend.o(i.Bsp_Add_Loca_Queue) refers to strlen.o(.text) for strlen
    bsp_rdsssend.o(i.Bsp_Add_Loca_Queue) refers to memcpya.o(.text) for __aeabi_memcpy
    bsp_rdsssend.o(i.Bsp_Add_Loca_Queue) refers to bsp_rdsssend.o(.bss) for .bss
    bsp_rdsssend.o(i.Bsp_BDS_Data_Send) refers to printfa.o(i.__0printf) for __2printf
    bsp_rdsssend.o(i.Bsp_BDS_Data_Send) refers to bsp_log.o(i.Log_str_printf) for Log_str_printf
    bsp_rdsssend.o(i.Bsp_BDS_Data_Send) refers to api_common.o(i.convert_str_to_hex) for convert_str_to_hex
    bsp_rdsssend.o(i.Bsp_BDS_Data_Send) refers to bsp_rdsssend.o(i.Bsp_Rdss_Tx_CCTCQ) for Bsp_Rdss_Tx_CCTCQ
    bsp_rdsssend.o(i.Bsp_BDS_Data_Send) refers to bsp_rdsssend.o(.bss) for .bss
    bsp_rdsssend.o(i.Bsp_Float_to_Buf) refers to printfa.o(i.__0sprintf) for __2sprintf
    bsp_rdsssend.o(i.Bsp_Into_Sleep) refers to bsp_rdssparse.o(i.Bsp_RDSS_Init) for Bsp_RDSS_Init
    bsp_rdsssend.o(i.Bsp_Into_Sleep) refers to bsp_gnssparse.o(i.Bsp_GNSS_Init) for Bsp_GNSS_Init
    bsp_rdsssend.o(i.Bsp_Into_Sleep) refers to hal_sleep.o(i.Hal_Get_Into_Sleep) for Hal_Get_Into_Sleep
    bsp_rdsssend.o(i.Bsp_Nor_SOS_SendCtrl) refers to bsp_keyled.o(i.Bsp_Get_Sys_State) for Bsp_Get_Sys_State
    bsp_rdsssend.o(i.Bsp_Nor_SOS_SendCtrl) refers to printfa.o(i.__0printf) for __2printf
    bsp_rdsssend.o(i.Bsp_Nor_SOS_SendCtrl) refers to bsp_config.o(i.Bsp_Read_ID) for Bsp_Read_ID
    bsp_rdsssend.o(i.Bsp_Nor_SOS_SendCtrl) refers to at32f435_437_gpio.o(i.gpio_bits_reset) for gpio_bits_reset
    bsp_rdsssend.o(i.Bsp_Nor_SOS_SendCtrl) refers to hal_uart.o(i.Hal_Uart4_Init) for Hal_Uart4_Init
    bsp_rdsssend.o(i.Bsp_Nor_SOS_SendCtrl) refers to hal_uart.o(i.Hal_Uart4_Deinit) for Hal_Uart4_Deinit
    bsp_rdsssend.o(i.Bsp_Nor_SOS_SendCtrl) refers to at32f435_437_gpio.o(i.gpio_bits_set) for gpio_bits_set
    bsp_rdsssend.o(i.Bsp_Nor_SOS_SendCtrl) refers to bsp_rdsssend.o(i.Bsp_Rdss_Tx_CCICR) for Bsp_Rdss_Tx_CCICR
    bsp_rdsssend.o(i.Bsp_Nor_SOS_SendCtrl) refers to bsp_batvol.o(i.Bps_Start_Once_Time_Updata_BatVol_Percent) for Bps_Start_Once_Time_Updata_BatVol_Percent
    bsp_rdsssend.o(i.Bsp_Nor_SOS_SendCtrl) refers to hal_uart.o(i.Hal_Uart1_Init) for Hal_Uart1_Init
    bsp_rdsssend.o(i.Bsp_Nor_SOS_SendCtrl) refers to bsp_rdsssend.o(i.Bsp_Add_Loca_Queue) for Bsp_Add_Loca_Queue
    bsp_rdsssend.o(i.Bsp_Nor_SOS_SendCtrl) refers to bsp_rdssparse.o(i.Bsp_Rdss_Signal_Is_Ok) for Bsp_Rdss_Signal_Is_Ok
    bsp_rdsssend.o(i.Bsp_Nor_SOS_SendCtrl) refers to bsp_rdsssend.o(i.Bsp_BDS_Data_Send) for Bsp_BDS_Data_Send
    bsp_rdsssend.o(i.Bsp_Nor_SOS_SendCtrl) refers to hal_sleep.o(i.RTC_Printf) for RTC_Printf
    bsp_rdsssend.o(i.Bsp_Nor_SOS_SendCtrl) refers to hal_uart.o(i.Hal_Uart1_Deinit) for Hal_Uart1_Deinit
    bsp_rdsssend.o(i.Bsp_Nor_SOS_SendCtrl) refers to bsp_rdsssend.o(.bss) for .bss
    bsp_rdsssend.o(i.Bsp_Nor_SOS_SendCtrl) refers to bsp_rdsssend.o(.conststring) for .conststring
    bsp_rdsssend.o(i.Bsp_Pull_SendCtrl) refers to bsp_keyled.o(i.Bsp_Get_Sys_State) for Bsp_Get_Sys_State
    bsp_rdsssend.o(i.Bsp_Pull_SendCtrl) refers to printfa.o(i.__0printf) for __2printf
    bsp_rdsssend.o(i.Bsp_Pull_SendCtrl) refers to bsp_config.o(i.Bsp_Read_ID) for Bsp_Read_ID
    bsp_rdsssend.o(i.Bsp_Pull_SendCtrl) refers to at32f435_437_gpio.o(i.gpio_bits_reset) for gpio_bits_reset
    bsp_rdsssend.o(i.Bsp_Pull_SendCtrl) refers to hal_uart.o(i.Hal_Uart4_Init) for Hal_Uart4_Init
    bsp_rdsssend.o(i.Bsp_Pull_SendCtrl) refers to bsp_rdsssend.o(i.Bsp_Rdss_Tx_CCICR) for Bsp_Rdss_Tx_CCICR
    bsp_rdsssend.o(i.Bsp_Pull_SendCtrl) refers to hal_uart.o(i.Hal_Uart4_Deinit) for Hal_Uart4_Deinit
    bsp_rdsssend.o(i.Bsp_Pull_SendCtrl) refers to at32f435_437_gpio.o(i.gpio_bits_set) for gpio_bits_set
    bsp_rdsssend.o(i.Bsp_Pull_SendCtrl) refers to bsp_batvol.o(i.Bps_Start_Once_Time_Updata_BatVol_Percent) for Bps_Start_Once_Time_Updata_BatVol_Percent
    bsp_rdsssend.o(i.Bsp_Pull_SendCtrl) refers to hal_uart.o(i.Hal_Uart1_Init) for Hal_Uart1_Init
    bsp_rdsssend.o(i.Bsp_Pull_SendCtrl) refers to bsp_rdsssend.o(i.Bsp_Add_Loca_Queue) for Bsp_Add_Loca_Queue
    bsp_rdsssend.o(i.Bsp_Pull_SendCtrl) refers to bsp_rdssparse.o(i.Bsp_Rdss_Signal_Is_Ok) for Bsp_Rdss_Signal_Is_Ok
    bsp_rdsssend.o(i.Bsp_Pull_SendCtrl) refers to bsp_rdsssend.o(i.Bsp_BDS_Data_Send) for Bsp_BDS_Data_Send
    bsp_rdsssend.o(i.Bsp_Pull_SendCtrl) refers to hal_sleep.o(i.RTC_Printf) for RTC_Printf
    bsp_rdsssend.o(i.Bsp_Pull_SendCtrl) refers to hal_uart.o(i.Hal_Uart1_Deinit) for Hal_Uart1_Deinit
    bsp_rdsssend.o(i.Bsp_Pull_SendCtrl) refers to bsp_rdsssend.o(.bss) for .bss
    bsp_rdsssend.o(i.Bsp_Pull_SendCtrl) refers to bsp_rdsssend.o(.conststring) for .conststring
    bsp_rdsssend.o(i.Bsp_Rdss_Tx_CCICR) refers to memcpya.o(.text) for __aeabi_memcpy4
    bsp_rdsssend.o(i.Bsp_Rdss_Tx_CCICR) refers to hal_uart.o(i.uart4_tx_string) for uart4_tx_string
    bsp_rdsssend.o(i.Bsp_Rdss_Tx_CCTCQ) refers to memseta.o(.text) for __aeabi_memclr4
    bsp_rdsssend.o(i.Bsp_Rdss_Tx_CCTCQ) refers to strlen.o(.text) for strlen
    bsp_rdsssend.o(i.Bsp_Rdss_Tx_CCTCQ) refers to memcpya.o(.text) for __aeabi_memcpy
    bsp_rdsssend.o(i.Bsp_Rdss_Tx_CCTCQ) refers to bsp_rdsssend.o(i.API_Check_Xor) for API_Check_Xor
    bsp_rdsssend.o(i.Bsp_Rdss_Tx_CCTCQ) refers to bsp_rdsssend.o(i.API_Hex8_To_String) for API_Hex8_To_String
    bsp_rdsssend.o(i.Bsp_Rdss_Tx_CCTCQ) refers to hal_uart.o(i.uart4_tx_string) for uart4_tx_string
    bsp_rdsssend.o(i.Bsp_Rdss_Tx_CCTCQ) refers to printfa.o(i.__0printf) for __2printf
    bsp_rdsssend.o(i.Bsp_Rdss_Tx_CCTCQ) refers to bsp_log.o(i.Log_str_printf) for Log_str_printf
    bsp_rdsssend.o(i.Bsp_Rdss_Tx_CCTCQ) refers to bsp_rdsssend.o(.bss) for .bss
    bsp_rdsssend.o(i.Bsp_Send_Get_CardID) refers to bsp_rdsssend.o(.bss) for .bss
    bsp_rdsssend.o(i.Bsp_Start_Move_Mode) refers to bsp_rdssparse.o(i.Bsp_RDSS_Init) for Bsp_RDSS_Init
    bsp_rdsssend.o(i.Bsp_Start_Move_Mode) refers to bsp_gnssparse.o(i.Bsp_GNSS_Init) for Bsp_GNSS_Init
    bsp_rdsssend.o(i.Bsp_Start_Move_Mode) refers to hal_uart.o(i.Hal_Uart1_Deinit) for Hal_Uart1_Deinit
    bsp_rdsssend.o(i.Bsp_Start_Move_Mode) refers to hal_uart.o(i.Hal_Uart4_Deinit) for Hal_Uart4_Deinit
    bsp_rdsssend.o(i.Bsp_Start_Move_Mode) refers to at32f435_437_gpio.o(i.gpio_bits_reset) for gpio_bits_reset
    bsp_rdsssend.o(i.Bsp_Start_Move_Mode) refers to at32f435_437_gpio.o(i.gpio_bits_set) for gpio_bits_set
    bsp_rdsssend.o(i.Bsp_Start_Move_Mode) refers to bsp_rdsssend.o(.bss) for .bss
    bsp_rdsssend.o(i.Bsp_Start_Normal_Mode) refers to bsp_rdssparse.o(i.Bsp_RDSS_Init) for Bsp_RDSS_Init
    bsp_rdsssend.o(i.Bsp_Start_Normal_Mode) refers to bsp_gnssparse.o(i.Bsp_GNSS_Init) for Bsp_GNSS_Init
    bsp_rdsssend.o(i.Bsp_Start_Normal_Mode) refers to hal_uart.o(i.Hal_Uart1_Deinit) for Hal_Uart1_Deinit
    bsp_rdsssend.o(i.Bsp_Start_Normal_Mode) refers to hal_uart.o(i.Hal_Uart4_Deinit) for Hal_Uart4_Deinit
    bsp_rdsssend.o(i.Bsp_Start_Normal_Mode) refers to at32f435_437_gpio.o(i.gpio_bits_reset) for gpio_bits_reset
    bsp_rdsssend.o(i.Bsp_Start_Normal_Mode) refers to at32f435_437_gpio.o(i.gpio_bits_set) for gpio_bits_set
    bsp_rdsssend.o(i.Bsp_Start_Normal_Mode) refers to bsp_rdsssend.o(.bss) for .bss
    bsp_rdsssend.o(i.Bsp_Start_PULL_Mode) refers to bsp_rdssparse.o(i.Bsp_RDSS_Init) for Bsp_RDSS_Init
    bsp_rdsssend.o(i.Bsp_Start_PULL_Mode) refers to bsp_gnssparse.o(i.Bsp_GNSS_Init) for Bsp_GNSS_Init
    bsp_rdsssend.o(i.Bsp_Start_PULL_Mode) refers to hal_uart.o(i.Hal_Uart1_Deinit) for Hal_Uart1_Deinit
    bsp_rdsssend.o(i.Bsp_Start_PULL_Mode) refers to hal_uart.o(i.Hal_Uart4_Deinit) for Hal_Uart4_Deinit
    bsp_rdsssend.o(i.Bsp_Start_PULL_Mode) refers to at32f435_437_gpio.o(i.gpio_bits_reset) for gpio_bits_reset
    bsp_rdsssend.o(i.Bsp_Start_PULL_Mode) refers to at32f435_437_gpio.o(i.gpio_bits_set) for gpio_bits_set
    bsp_rdsssend.o(i.Bsp_Start_PULL_Mode) refers to bsp_rdsssend.o(.bss) for .bss
    bsp_rdsssend.o(i.Bsp_Start_SOS_Mode) refers to bsp_rdssparse.o(i.Bsp_RDSS_Init) for Bsp_RDSS_Init
    bsp_rdsssend.o(i.Bsp_Start_SOS_Mode) refers to bsp_gnssparse.o(i.Bsp_GNSS_Init) for Bsp_GNSS_Init
    bsp_rdsssend.o(i.Bsp_Start_SOS_Mode) refers to hal_uart.o(i.Hal_Uart1_Deinit) for Hal_Uart1_Deinit
    bsp_rdsssend.o(i.Bsp_Start_SOS_Mode) refers to hal_uart.o(i.Hal_Uart4_Deinit) for Hal_Uart4_Deinit
    bsp_rdsssend.o(i.Bsp_Start_SOS_Mode) refers to at32f435_437_gpio.o(i.gpio_bits_reset) for gpio_bits_reset
    bsp_rdsssend.o(i.Bsp_Start_SOS_Mode) refers to at32f435_437_gpio.o(i.gpio_bits_set) for gpio_bits_set
    bsp_rdsssend.o(i.Bsp_Start_SOS_Mode) refers to bsp_rdsssend.o(.bss) for .bss
    bsp_log.o(i.Log_str_printf) refers to hal_uart.o(i.uart2_tx_string) for uart2_tx_string
    bsp_log.o(i.Log_str_printf) refers to printfa.o(i.__0printf) for __2printf
    bsp_config.o(i.Bsp_Get_CardID) refers to bsp_config.o(.bss) for .bss
    bsp_config.o(i.Bsp_Get_Uart_Mode) refers to bsp_config.o(.data) for .data
    bsp_config.o(i.Bsp_Port_InforGet_Ctrl) refers to bsp_config.o(i.infor_rep) for infor_rep
    bsp_config.o(i.Bsp_Port_InforGet_Ctrl) refers to at32f435_437_gpio.o(i.gpio_bits_set) for gpio_bits_set
    bsp_config.o(i.Bsp_Port_InforGet_Ctrl) refers to hal_uart.o(i.Hal_Uart4_Deinit) for Hal_Uart4_Deinit
    bsp_config.o(i.Bsp_Port_InforGet_Ctrl) refers to bsp_batvol.o(i.Bps_Start_Once_Time_Updata_BatVol_Percent) for Bps_Start_Once_Time_Updata_BatVol_Percent
    bsp_config.o(i.Bsp_Port_InforGet_Ctrl) refers to at32f435_437_gpio.o(i.gpio_bits_reset) for gpio_bits_reset
    bsp_config.o(i.Bsp_Port_InforGet_Ctrl) refers to hal_uart.o(i.Hal_Uart4_Init) for Hal_Uart4_Init
    bsp_config.o(i.Bsp_Port_InforGet_Ctrl) refers to bsp_batvol.o(i.Bsp_Get_Updata_Bat_Voltage_Once_State) for Bsp_Get_Updata_Bat_Voltage_Once_State
    bsp_config.o(i.Bsp_Port_InforGet_Ctrl) refers to bsp_rdsssend.o(i.Bsp_Rdss_Tx_CCICR) for Bsp_Rdss_Tx_CCICR
    bsp_config.o(i.Bsp_Port_InforGet_Ctrl) refers to bsp_config.o(.bss) for .bss
    bsp_config.o(i.Bsp_Port_Init) refers to memseta.o(.text) for __aeabi_memclr4
    bsp_config.o(i.Bsp_Port_Init) refers to bsp_config.o(.bss) for .bss
    bsp_config.o(i.Bsp_Port_Parse_Byte) refers to bsp_config.o(i.Port_Checksum) for Port_Checksum
    bsp_config.o(i.Bsp_Port_Parse_Byte) refers to bsp_config.o(i.Port_Rxdata_deal) for Port_Rxdata_deal
    bsp_config.o(i.Bsp_Port_Parse_Byte) refers to bsp_config.o(.bss) for .bss
    bsp_config.o(i.Bsp_Read_ID) refers to hal_flash.o(i.Hal_Flash_Read_Word) for Hal_Flash_Read_Word
    bsp_config.o(i.Bsp_Write_Boot_Flag) refers to hal_flash.o(i.Hal_Flash_Write_Word) for Hal_Flash_Write_Word
    bsp_config.o(i.Bsp_Write_ID) refers to hal_flash.o(i.Hal_Flash_Write_Word) for Hal_Flash_Write_Word
    bsp_config.o(i.Port_Rxdata_deal) refers to memseta.o(.text) for __aeabi_memclr4
    bsp_config.o(i.Port_Rxdata_deal) refers to memcpya.o(.text) for __aeabi_memcpy
    bsp_config.o(i.Port_Rxdata_deal) refers to bsp_config.o(i.ota_start_rep) for ota_start_rep
    bsp_config.o(i.Port_Rxdata_deal) refers to bsp_config.o(i.open_closs_rdss) for open_closs_rdss
    bsp_config.o(i.Port_Rxdata_deal) refers to printfa.o(i.__0printf) for __2printf
    bsp_config.o(i.Port_Rxdata_deal) refers to bsp_config.o(i.infor_get) for infor_get
    bsp_config.o(i.Port_Rxdata_deal) refers to bsp_config.o(i.id_write) for id_write
    bsp_config.o(i.Port_Rxdata_deal) refers to bsp_config.o(i.versions_rep) for versions_rep
    bsp_config.o(i.Port_Rxdata_deal) refers to bsp_config.o(i.open_closs_gnss) for open_closs_gnss
    bsp_config.o(i.Port_Tx_Cmd_Pack) refers to memseta.o(.text) for __aeabi_memclr4
    bsp_config.o(i.Port_Tx_Cmd_Pack) refers to memcpya.o(.text) for __aeabi_memcpy
    bsp_config.o(i.Port_Tx_Cmd_Pack) refers to bsp_config.o(i.Port_Checksum) for Port_Checksum
    bsp_config.o(i.Port_Tx_Cmd_Pack) refers to hal_uart.o(i.uart3_tx_string) for uart3_tx_string
    bsp_config.o(i.Port_Tx_Cmd_Pack) refers to bsp_config.o(.bss) for .bss
    bsp_config.o(i.id_write) refers to bsp_config.o(i.Bsp_Write_ID) for Bsp_Write_ID
    bsp_config.o(i.id_write) refers to bsp_config.o(i.Bsp_Read_ID) for Bsp_Read_ID
    bsp_config.o(i.id_write) refers to bsp_config.o(i.Port_Tx_Cmd_Pack) for Port_Tx_Cmd_Pack
    bsp_config.o(i.infor_get) refers to bsp_config.o(.bss) for .bss
    bsp_config.o(i.infor_rep) refers to memseta.o(.text) for __aeabi_memclr4
    bsp_config.o(i.infor_rep) refers to bsp_config.o(i.Bsp_Read_ID) for Bsp_Read_ID
    bsp_config.o(i.infor_rep) refers to bsp_batvol.o(i.Bsp_Get_BatPercent) for Bsp_Get_BatPercent
    bsp_config.o(i.infor_rep) refers to bsp_config.o(i.Port_Tx_Cmd_Pack) for Port_Tx_Cmd_Pack
    bsp_config.o(i.infor_rep) refers to bsp_config.o(.bss) for .bss
    bsp_config.o(i.open_closs_gnss) refers to bsp_keyled.o(i.Bsp_Get_Pow_State) for Bsp_Get_Pow_State
    bsp_config.o(i.open_closs_gnss) refers to hal_uart.o(i.Hal_Uart4_Deinit) for Hal_Uart4_Deinit
    bsp_config.o(i.open_closs_gnss) refers to at32f435_437_gpio.o(i.gpio_bits_set) for gpio_bits_set
    bsp_config.o(i.open_closs_gnss) refers to hal_uart.o(i.Hal_Uart1_Init) for Hal_Uart1_Init
    bsp_config.o(i.open_closs_gnss) refers to hal_uart.o(i.Hal_Uart1_Deinit) for Hal_Uart1_Deinit
    bsp_config.o(i.open_closs_gnss) refers to at32f435_437_gpio.o(i.gpio_bits_reset) for gpio_bits_reset
    bsp_config.o(i.open_closs_gnss) refers to bsp_config.o(i.Port_Tx_Cmd_Pack) for Port_Tx_Cmd_Pack
    bsp_config.o(i.open_closs_gnss) refers to bsp_config.o(.data) for .data
    bsp_config.o(i.open_closs_rdss) refers to bsp_keyled.o(i.Bsp_Get_Sys_State) for Bsp_Get_Sys_State
    bsp_config.o(i.open_closs_rdss) refers to hal_uart.o(i.Hal_Uart1_Deinit) for Hal_Uart1_Deinit
    bsp_config.o(i.open_closs_rdss) refers to at32f435_437_gpio.o(i.gpio_bits_reset) for gpio_bits_reset
    bsp_config.o(i.open_closs_rdss) refers to hal_uart.o(i.Hal_Uart4_Init) for Hal_Uart4_Init
    bsp_config.o(i.open_closs_rdss) refers to hal_uart.o(i.Hal_Uart4_Deinit) for Hal_Uart4_Deinit
    bsp_config.o(i.open_closs_rdss) refers to at32f435_437_gpio.o(i.gpio_bits_set) for gpio_bits_set
    bsp_config.o(i.open_closs_rdss) refers to bsp_config.o(i.Port_Tx_Cmd_Pack) for Port_Tx_Cmd_Pack
    bsp_config.o(i.open_closs_rdss) refers to bsp_config.o(.data) for .data
    bsp_config.o(i.ota_start_rep) refers to bsp_config.o(i.Bsp_Write_Boot_Flag) for Bsp_Write_Boot_Flag
    bsp_config.o(i.ota_start_rep) refers to at32f435_437_gpio.o(i.gpio_bits_reset) for gpio_bits_reset
    bsp_config.o(i.ota_start_rep) refers to at32f435_437_gpio.o(i.gpio_bits_set) for gpio_bits_set
    bsp_config.o(i.ota_start_rep) refers to hal_flash.o(i.Hal_Falsh_Jump) for Hal_Falsh_Jump
    bsp_config.o(i.ota_start_rep) refers to bsp_config.o(i.Port_Tx_Cmd_Pack) for Port_Tx_Cmd_Pack
    bsp_config.o(i.versions_rep) refers to bsp_config.o(i.Port_Tx_Cmd_Pack) for Port_Tx_Cmd_Pack
    main.o(i.main) refers to hal_init.o(i.Mcu_Hal_Init) for Mcu_Hal_Init
    main.o(i.main) refers to bsp_init.o(i.Fun_Bsp_Init) for Fun_Bsp_Init
    main.o(i.main) refers to sys_timerun.o(i.Time_Routime) for Time_Routime
    main.o(i.main) refers to bsp_uartrec.o(i.Bsp_Receive_Uart1_Fifo_Data) for Bsp_Receive_Uart1_Fifo_Data
    main.o(i.main) refers to bsp_uartrec.o(i.Bsp_Receive_Uart2_Fifo_Data) for Bsp_Receive_Uart2_Fifo_Data
    main.o(i.main) refers to bsp_uartrec.o(i.Bsp_Receive_Uart3_Fifo_Data) for Bsp_Receive_Uart3_Fifo_Data
    main.o(i.main) refers to bsp_uartrec.o(i.Bsp_Receive_Uart4_Fifo_Data) for Bsp_Receive_Uart4_Fifo_Data
    sys_timerun.o(i.SlotBranch100ms) refers to bsp_config.o(i.Bsp_Port_InforGet_Ctrl) for Bsp_Port_InforGet_Ctrl
    sys_timerun.o(i.SlotBranch100ms) refers to sys_timerun.o(i.SlotBranch1s) for SlotBranch1s
    sys_timerun.o(i.SlotBranch100ms) refers to sys_timerun.o(.data) for .data
    sys_timerun.o(i.SlotBranch10ms) refers to bsp_batvol.o(i.ADConvert) for ADConvert
    sys_timerun.o(i.SlotBranch10ms) refers to bsp_batvol.o(i.Bsp_Updata_Bat_Percent) for Bsp_Updata_Bat_Percent
    sys_timerun.o(i.SlotBranch10ms) refers to bsp_keyled.o(i.Bsp_MagKey_Scan) for Bsp_MagKey_Scan
    sys_timerun.o(i.SlotBranch10ms) refers to sys_timerun.o(i.SlotBranch100ms) for SlotBranch100ms
    sys_timerun.o(i.SlotBranch10ms) refers to sys_timerun.o(.data) for .data
    sys_timerun.o(i.SlotBranch1ms) refers to sys_timerun.o(i.SlotBranch10ms) for SlotBranch10ms
    sys_timerun.o(i.SlotBranch1s) refers to bsp_rdsssend.o(i.Bsp_Nor_SOS_SendCtrl) for Bsp_Nor_SOS_SendCtrl
    sys_timerun.o(i.SlotBranch1s) refers to bsp_batvol.o(i.Bsp_Get_SloarVol) for Bsp_Get_SloarVol
    sys_timerun.o(i.SlotBranch1s) refers to bsp_batvol.o(i.Bsp_Get_Temp) for Bsp_Get_Temp
    sys_timerun.o(i.SlotBranch1s) refers to printfa.o(i.__0printf) for __2printf
    sys_timerun.o(i.SlotBranch1s) refers to bsp_rdsssend.o(i.Bsp_Pull_SendCtrl) for Bsp_Pull_SendCtrl
    sys_timerun.o(i.SlotBranch1s) refers to bsp_keyled.o(i.Bsp_Bat_Vol_Display) for Bsp_Bat_Vol_Display
    sys_timerun.o(i.SlotBranch1s) refers to bsp_keyled.o(i.Bsp_Sys_State_Ctrl) for Bsp_Sys_State_Ctrl
    sys_timerun.o(i.SlotBranch1s) refers to bsp_keyled.o(i.Bsp_Vbat_Chag_Ctrl) for Bsp_Vbat_Chag_Ctrl
    sys_timerun.o(i.SlotBranch1s) refers to bsp_keyled.o(i.Bsp_Error_Led_Display) for Bsp_Error_Led_Display
    sys_timerun.o(i.SlotBranch1s) refers to sys_timerun.o(.data) for .data
    sys_timerun.o(i.SysTick_Handler) refers to sys_timerun.o(.data) for .data
    sys_timerun.o(i.Time_Routime) refers to sys_timerun.o(i.SlotBranch10ms) for SlotBranch10ms
    sys_timerun.o(i.Time_Routime) refers to sys_timerun.o(.data) for .data
    asin.o(i.__hardfp_asin) refers (Special) to iusefp.o(.text) for __I$use$fp
    asin.o(i.__hardfp_asin) refers to dunder.o(i.__mathlib_dbl_infnan) for __mathlib_dbl_infnan
    asin.o(i.__hardfp_asin) refers to dmul.o(.text) for __aeabi_dmul
    asin.o(i.__hardfp_asin) refers to dadd.o(.text) for __aeabi_dadd
    asin.o(i.__hardfp_asin) refers to errno.o(i.__set_errno) for __set_errno
    asin.o(i.__hardfp_asin) refers to dunder.o(i.__mathlib_dbl_invalid) for __mathlib_dbl_invalid
    asin.o(i.__hardfp_asin) refers to fpclassify.o(i.__ARM_fpclassify) for __ARM_fpclassify
    asin.o(i.__hardfp_asin) refers to dunder.o(i.__mathlib_dbl_underflow) for __mathlib_dbl_underflow
    asin.o(i.__hardfp_asin) refers to poly.o(i.__kernel_poly) for __kernel_poly
    asin.o(i.__hardfp_asin) refers to ddiv.o(.text) for __aeabi_ddiv
    asin.o(i.__hardfp_asin) refers to fabs.o(i.fabs) for fabs
    asin.o(i.__hardfp_asin) refers to sqrt.o(i.sqrt) for sqrt
    asin.o(i.__hardfp_asin) refers to asin.o(.constdata) for .constdata
    asin.o(i.__softfp_asin) refers (Special) to iusefp.o(.text) for __I$use$fp
    asin.o(i.__softfp_asin) refers to asin.o(i.__hardfp_asin) for __hardfp_asin
    asin.o(i.asin) refers (Special) to iusefp.o(.text) for __I$use$fp
    asin.o(i.asin) refers to asin.o(i.__hardfp_asin) for __hardfp_asin
    asin.o(.constdata) refers (Special) to iusefp.o(.text) for __I$use$fp
    asin_x.o(i.____hardfp_asin$lsc) refers (Special) to iusefp.o(.text) for __I$use$fp
    asin_x.o(i.____hardfp_asin$lsc) refers to dunder.o(i.__mathlib_dbl_infnan) for __mathlib_dbl_infnan
    asin_x.o(i.____hardfp_asin$lsc) refers to dmul.o(.text) for __aeabi_dmul
    asin_x.o(i.____hardfp_asin$lsc) refers to dadd.o(.text) for __aeabi_dadd
    asin_x.o(i.____hardfp_asin$lsc) refers to errno.o(i.__set_errno) for __set_errno
    asin_x.o(i.____hardfp_asin$lsc) refers to poly.o(i.__kernel_poly) for __kernel_poly
    asin_x.o(i.____hardfp_asin$lsc) refers to ddiv.o(.text) for __aeabi_ddiv
    asin_x.o(i.____hardfp_asin$lsc) refers to fabs.o(i.fabs) for fabs
    asin_x.o(i.____hardfp_asin$lsc) refers to sqrt.o(i.sqrt) for sqrt
    asin_x.o(i.____hardfp_asin$lsc) refers to asin_x.o(.constdata) for .constdata
    asin_x.o(i.____softfp_asin$lsc) refers (Special) to iusefp.o(.text) for __I$use$fp
    asin_x.o(i.____softfp_asin$lsc) refers to asin_x.o(i.____hardfp_asin$lsc) for ____hardfp_asin$lsc
    asin_x.o(i.__asin$lsc) refers (Special) to iusefp.o(.text) for __I$use$fp
    asin_x.o(i.__asin$lsc) refers to asin_x.o(i.____hardfp_asin$lsc) for ____hardfp_asin$lsc
    asin_x.o(.constdata) refers (Special) to iusefp.o(.text) for __I$use$fp
    atof.o(i.__hardfp_atof) refers (Special) to iusefp.o(.text) for __I$use$fp
    atof.o(i.__hardfp_atof) refers to errno.o(i.__read_errno) for __read_errno
    atof.o(i.__hardfp_atof) refers to strtod.o(.text) for __strtod_int
    atof.o(i.__hardfp_atof) refers to errno.o(i.__set_errno) for __set_errno
    atof.o(i.__softfp_atof) refers (Special) to iusefp.o(.text) for __I$use$fp
    atof.o(i.__softfp_atof) refers to errno.o(i.__read_errno) for __read_errno
    atof.o(i.__softfp_atof) refers to strtod.o(.text) for __strtod_int
    atof.o(i.__softfp_atof) refers to errno.o(i.__set_errno) for __set_errno
    atof.o(i.atof) refers (Special) to iusefp.o(.text) for __I$use$fp
    atof.o(i.atof) refers to errno.o(i.__read_errno) for __read_errno
    atof.o(i.atof) refers to strtod.o(.text) for __strtod_int
    atof.o(i.atof) refers to errno.o(i.__set_errno) for __set_errno
    cos.o(i.__hardfp_cos) refers (Special) to iusefp.o(.text) for __I$use$fp
    cos.o(i.__hardfp_cos) refers to errno.o(i.__set_errno) for __set_errno
    cos.o(i.__hardfp_cos) refers to dunder.o(i.__mathlib_dbl_invalid) for __mathlib_dbl_invalid
    cos.o(i.__hardfp_cos) refers to dunder.o(i.__mathlib_dbl_infnan) for __mathlib_dbl_infnan
    cos.o(i.__hardfp_cos) refers to rred.o(i.__ieee754_rem_pio2) for __ieee754_rem_pio2
    cos.o(i.__hardfp_cos) refers to sin_i.o(i.__kernel_sin) for __kernel_sin
    cos.o(i.__hardfp_cos) refers to cos_i.o(i.__kernel_cos) for __kernel_cos
    cos.o(i.__softfp_cos) refers (Special) to iusefp.o(.text) for __I$use$fp
    cos.o(i.__softfp_cos) refers to cos.o(i.__hardfp_cos) for __hardfp_cos
    cos.o(i.cos) refers (Special) to iusefp.o(.text) for __I$use$fp
    cos.o(i.cos) refers to cos.o(i.__hardfp_cos) for __hardfp_cos
    cos_x.o(i.____hardfp_cos$lsc) refers (Special) to iusefp.o(.text) for __I$use$fp
    cos_x.o(i.____hardfp_cos$lsc) refers to errno.o(i.__set_errno) for __set_errno
    cos_x.o(i.____hardfp_cos$lsc) refers to dunder.o(i.__mathlib_dbl_infnan) for __mathlib_dbl_infnan
    cos_x.o(i.____hardfp_cos$lsc) refers to rred.o(i.__ieee754_rem_pio2) for __ieee754_rem_pio2
    cos_x.o(i.____hardfp_cos$lsc) refers to sin_i.o(i.__kernel_sin) for __kernel_sin
    cos_x.o(i.____hardfp_cos$lsc) refers to cos_i.o(i.__kernel_cos) for __kernel_cos
    cos_x.o(i.____softfp_cos$lsc) refers (Special) to iusefp.o(.text) for __I$use$fp
    cos_x.o(i.____softfp_cos$lsc) refers to cos_x.o(i.____hardfp_cos$lsc) for ____hardfp_cos$lsc
    cos_x.o(i.__cos$lsc) refers (Special) to iusefp.o(.text) for __I$use$fp
    cos_x.o(i.__cos$lsc) refers to cos_x.o(i.____hardfp_cos$lsc) for ____hardfp_cos$lsc
    sqrt.o(i.__hardfp_sqrt) refers (Special) to iusefp.o(.text) for __I$use$fp
    sqrt.o(i.__hardfp_sqrt) refers to dsqrt.o(.text) for _dsqrt
    sqrt.o(i.__hardfp_sqrt) refers to errno.o(i.__set_errno) for __set_errno
    sqrt.o(i.__softfp_sqrt) refers (Special) to iusefp.o(.text) for __I$use$fp
    sqrt.o(i.__softfp_sqrt) refers to dsqrt.o(.text) for _dsqrt
    sqrt.o(i.__softfp_sqrt) refers to errno.o(i.__set_errno) for __set_errno
    sqrt.o(i.sqrt) refers (Special) to iusefp.o(.text) for __I$use$fp
    sqrt.o(i.sqrt) refers to dsqrt.o(.text) for _dsqrt
    sqrt.o(i.sqrt) refers to errno.o(i.__set_errno) for __set_errno
    sqrt_x.o(i.____hardfp_sqrt$lsc) refers (Special) to iusefp.o(.text) for __I$use$fp
    sqrt_x.o(i.____hardfp_sqrt$lsc) refers to cdcmple.o(.text) for __aeabi_cdcmple
    sqrt_x.o(i.____hardfp_sqrt$lsc) refers to errno.o(i.__set_errno) for __set_errno
    sqrt_x.o(i.____hardfp_sqrt$lsc) refers to dsqrt.o(.text) for _dsqrt
    sqrt_x.o(i.____softfp_sqrt$lsc) refers (Special) to iusefp.o(.text) for __I$use$fp
    sqrt_x.o(i.____softfp_sqrt$lsc) refers to cdcmple.o(.text) for __aeabi_cdcmple
    sqrt_x.o(i.____softfp_sqrt$lsc) refers to errno.o(i.__set_errno) for __set_errno
    sqrt_x.o(i.____softfp_sqrt$lsc) refers to dsqrt.o(.text) for _dsqrt
    sqrt_x.o(i.__sqrt$lsc) refers (Special) to iusefp.o(.text) for __I$use$fp
    sqrt_x.o(i.__sqrt$lsc) refers to cdcmple.o(.text) for __aeabi_cdcmple
    sqrt_x.o(i.__sqrt$lsc) refers to errno.o(i.__set_errno) for __set_errno
    sqrt_x.o(i.__sqrt$lsc) refers to dsqrt.o(.text) for _dsqrt
    entry.o(.ARM.Collect$$$$00000000) refers (Special) to entry10a.o(.ARM.Collect$$$$0000000D) for __rt_final_cpp
    entry.o(.ARM.Collect$$$$00000000) refers (Special) to entry11a.o(.ARM.Collect$$$$0000000F) for __rt_final_exit
    entry.o(.ARM.Collect$$$$00000000) refers (Special) to entry7b.o(.ARM.Collect$$$$00000008) for _main_clock
    entry.o(.ARM.Collect$$$$00000000) refers (Special) to entry8b.o(.ARM.Collect$$$$0000000A) for _main_cpp_init
    entry.o(.ARM.Collect$$$$00000000) refers (Special) to entry9a.o(.ARM.Collect$$$$0000000B) for _main_init
    entry.o(.ARM.Collect$$$$00000000) refers (Special) to entry5.o(.ARM.Collect$$$$00000004) for _main_scatterload
    entry.o(.ARM.Collect$$$$00000000) refers (Special) to entry2.o(.ARM.Collect$$$$00000001) for _main_stk
    uldiv.o(.text) refers to llushr.o(.text) for __aeabi_llsr
    uldiv.o(.text) refers to llshl.o(.text) for __aeabi_llsl
    mktime.o(.text) refers to localtime_i.o(.text) for _localtime
    mktime.o(.text) refers to mktime.o(.constdata) for .constdata
    printfb.o(i.__0fprintf$bare) refers to printfb.o(i._printf_core) for _printf_core
    printfb.o(i.__0fprintf$bare) refers to hal_uart.o(i.fputc) for fputc
    printfb.o(i.__0printf$bare) refers to printfb.o(i._printf_core) for _printf_core
    printfb.o(i.__0printf$bare) refers to hal_uart.o(i.fputc) for fputc
    printfb.o(i.__0printf$bare) refers to hal_uart.o(.data) for __stdout
    printfb.o(i.__0snprintf$bare) refers to printfb.o(i._printf_core) for _printf_core
    printfb.o(i.__0snprintf$bare) refers to printfb.o(i._snputc) for _snputc
    printfb.o(i.__0sprintf$bare) refers to printfb.o(i._printf_core) for _printf_core
    printfb.o(i.__0sprintf$bare) refers to printfb.o(i._sputc) for _sputc
    printfb.o(i.__0vfprintf$bare) refers to printfb.o(i._printf_core) for _printf_core
    printfb.o(i.__0vfprintf$bare) refers to hal_uart.o(i.fputc) for fputc
    printfb.o(i.__0vprintf$bare) refers to printfb.o(i._printf_core) for _printf_core
    printfb.o(i.__0vprintf$bare) refers to hal_uart.o(i.fputc) for fputc
    printfb.o(i.__0vprintf$bare) refers to hal_uart.o(.data) for __stdout
    printfb.o(i.__0vsnprintf$bare) refers to printfb.o(i._printf_core) for _printf_core
    printfb.o(i.__0vsnprintf$bare) refers to printfb.o(i._snputc) for _snputc
    printfb.o(i.__0vsprintf$bare) refers to printfb.o(i._printf_core) for _printf_core
    printfb.o(i.__0vsprintf$bare) refers to printfb.o(i._sputc) for _sputc
    printf0.o(i.__0fprintf$0) refers to printf0.o(i._printf_core) for _printf_core
    printf0.o(i.__0fprintf$0) refers to hal_uart.o(i.fputc) for fputc
    printf0.o(i.__0printf$0) refers to printf0.o(i._printf_core) for _printf_core
    printf0.o(i.__0printf$0) refers to hal_uart.o(i.fputc) for fputc
    printf0.o(i.__0printf$0) refers to hal_uart.o(.data) for __stdout
    printf0.o(i.__0snprintf$0) refers to printf0.o(i._printf_core) for _printf_core
    printf0.o(i.__0snprintf$0) refers to printf0.o(i._snputc) for _snputc
    printf0.o(i.__0sprintf$0) refers to printf0.o(i._printf_core) for _printf_core
    printf0.o(i.__0sprintf$0) refers to printf0.o(i._sputc) for _sputc
    printf0.o(i.__0vfprintf$0) refers to printf0.o(i._printf_core) for _printf_core
    printf0.o(i.__0vfprintf$0) refers to hal_uart.o(i.fputc) for fputc
    printf0.o(i.__0vprintf$0) refers to printf0.o(i._printf_core) for _printf_core
    printf0.o(i.__0vprintf$0) refers to hal_uart.o(i.fputc) for fputc
    printf0.o(i.__0vprintf$0) refers to hal_uart.o(.data) for __stdout
    printf0.o(i.__0vsnprintf$0) refers to printf0.o(i._printf_core) for _printf_core
    printf0.o(i.__0vsnprintf$0) refers to printf0.o(i._snputc) for _snputc
    printf0.o(i.__0vsprintf$0) refers to printf0.o(i._printf_core) for _printf_core
    printf0.o(i.__0vsprintf$0) refers to printf0.o(i._sputc) for _sputc
    printf1.o(i.__0fprintf$1) refers to printf1.o(i._printf_core) for _printf_core
    printf1.o(i.__0fprintf$1) refers to hal_uart.o(i.fputc) for fputc
    printf1.o(i.__0printf$1) refers to printf1.o(i._printf_core) for _printf_core
    printf1.o(i.__0printf$1) refers to hal_uart.o(i.fputc) for fputc
    printf1.o(i.__0printf$1) refers to hal_uart.o(.data) for __stdout
    printf1.o(i.__0snprintf$1) refers to printf1.o(i._printf_core) for _printf_core
    printf1.o(i.__0snprintf$1) refers to printf1.o(i._snputc) for _snputc
    printf1.o(i.__0sprintf$1) refers to printf1.o(i._printf_core) for _printf_core
    printf1.o(i.__0sprintf$1) refers to printf1.o(i._sputc) for _sputc
    printf1.o(i.__0vfprintf$1) refers to printf1.o(i._printf_core) for _printf_core
    printf1.o(i.__0vfprintf$1) refers to hal_uart.o(i.fputc) for fputc
    printf1.o(i.__0vprintf$1) refers to printf1.o(i._printf_core) for _printf_core
    printf1.o(i.__0vprintf$1) refers to hal_uart.o(i.fputc) for fputc
    printf1.o(i.__0vprintf$1) refers to hal_uart.o(.data) for __stdout
    printf1.o(i.__0vsnprintf$1) refers to printf1.o(i._printf_core) for _printf_core
    printf1.o(i.__0vsnprintf$1) refers to printf1.o(i._snputc) for _snputc
    printf1.o(i.__0vsprintf$1) refers to printf1.o(i._printf_core) for _printf_core
    printf1.o(i.__0vsprintf$1) refers to printf1.o(i._sputc) for _sputc
    printf1.o(i._printf_core) refers to uidiv.o(.text) for __aeabi_uidivmod
    printf2.o(i.__0fprintf$2) refers to printf2.o(i._printf_core) for _printf_core
    printf2.o(i.__0fprintf$2) refers to hal_uart.o(i.fputc) for fputc
    printf2.o(i.__0printf$2) refers to printf2.o(i._printf_core) for _printf_core
    printf2.o(i.__0printf$2) refers to hal_uart.o(i.fputc) for fputc
    printf2.o(i.__0printf$2) refers to hal_uart.o(.data) for __stdout
    printf2.o(i.__0snprintf$2) refers to printf2.o(i._printf_core) for _printf_core
    printf2.o(i.__0snprintf$2) refers to printf2.o(i._snputc) for _snputc
    printf2.o(i.__0sprintf$2) refers to printf2.o(i._printf_core) for _printf_core
    printf2.o(i.__0sprintf$2) refers to printf2.o(i._sputc) for _sputc
    printf2.o(i.__0vfprintf$2) refers to printf2.o(i._printf_core) for _printf_core
    printf2.o(i.__0vfprintf$2) refers to hal_uart.o(i.fputc) for fputc
    printf2.o(i.__0vprintf$2) refers to printf2.o(i._printf_core) for _printf_core
    printf2.o(i.__0vprintf$2) refers to hal_uart.o(i.fputc) for fputc
    printf2.o(i.__0vprintf$2) refers to hal_uart.o(.data) for __stdout
    printf2.o(i.__0vsnprintf$2) refers to printf2.o(i._printf_core) for _printf_core
    printf2.o(i.__0vsnprintf$2) refers to printf2.o(i._snputc) for _snputc
    printf2.o(i.__0vsprintf$2) refers to printf2.o(i._printf_core) for _printf_core
    printf2.o(i.__0vsprintf$2) refers to printf2.o(i._sputc) for _sputc
    printf3.o(i.__0fprintf$3) refers to printf3.o(i._printf_core) for _printf_core
    printf3.o(i.__0fprintf$3) refers to hal_uart.o(i.fputc) for fputc
    printf3.o(i.__0printf$3) refers to printf3.o(i._printf_core) for _printf_core
    printf3.o(i.__0printf$3) refers to hal_uart.o(i.fputc) for fputc
    printf3.o(i.__0printf$3) refers to hal_uart.o(.data) for __stdout
    printf3.o(i.__0snprintf$3) refers to printf3.o(i._printf_core) for _printf_core
    printf3.o(i.__0snprintf$3) refers to printf3.o(i._snputc) for _snputc
    printf3.o(i.__0sprintf$3) refers to printf3.o(i._printf_core) for _printf_core
    printf3.o(i.__0sprintf$3) refers to printf3.o(i._sputc) for _sputc
    printf3.o(i.__0vfprintf$3) refers to printf3.o(i._printf_core) for _printf_core
    printf3.o(i.__0vfprintf$3) refers to hal_uart.o(i.fputc) for fputc
    printf3.o(i.__0vprintf$3) refers to printf3.o(i._printf_core) for _printf_core
    printf3.o(i.__0vprintf$3) refers to hal_uart.o(i.fputc) for fputc
    printf3.o(i.__0vprintf$3) refers to hal_uart.o(.data) for __stdout
    printf3.o(i.__0vsnprintf$3) refers to printf3.o(i._printf_core) for _printf_core
    printf3.o(i.__0vsnprintf$3) refers to printf3.o(i._snputc) for _snputc
    printf3.o(i.__0vsprintf$3) refers to printf3.o(i._printf_core) for _printf_core
    printf3.o(i.__0vsprintf$3) refers to printf3.o(i._sputc) for _sputc
    printf3.o(i._printf_core) refers to uidiv.o(.text) for __aeabi_uidivmod
    printf4.o(i.__0fprintf$4) refers to printf4.o(i._printf_core) for _printf_core
    printf4.o(i.__0fprintf$4) refers to hal_uart.o(i.fputc) for fputc
    printf4.o(i.__0printf$4) refers to printf4.o(i._printf_core) for _printf_core
    printf4.o(i.__0printf$4) refers to hal_uart.o(i.fputc) for fputc
    printf4.o(i.__0printf$4) refers to hal_uart.o(.data) for __stdout
    printf4.o(i.__0snprintf$4) refers to printf4.o(i._printf_core) for _printf_core
    printf4.o(i.__0snprintf$4) refers to printf4.o(i._snputc) for _snputc
    printf4.o(i.__0sprintf$4) refers to printf4.o(i._printf_core) for _printf_core
    printf4.o(i.__0sprintf$4) refers to printf4.o(i._sputc) for _sputc
    printf4.o(i.__0vfprintf$4) refers to printf4.o(i._printf_core) for _printf_core
    printf4.o(i.__0vfprintf$4) refers to hal_uart.o(i.fputc) for fputc
    printf4.o(i.__0vprintf$4) refers to printf4.o(i._printf_core) for _printf_core
    printf4.o(i.__0vprintf$4) refers to hal_uart.o(i.fputc) for fputc
    printf4.o(i.__0vprintf$4) refers to hal_uart.o(.data) for __stdout
    printf4.o(i.__0vsnprintf$4) refers to printf4.o(i._printf_core) for _printf_core
    printf4.o(i.__0vsnprintf$4) refers to printf4.o(i._snputc) for _snputc
    printf4.o(i.__0vsprintf$4) refers to printf4.o(i._printf_core) for _printf_core
    printf4.o(i.__0vsprintf$4) refers to printf4.o(i._sputc) for _sputc
    printf4.o(i._printf_core) refers to uldiv.o(.text) for __aeabi_uldivmod
    printf5.o(i.__0fprintf$5) refers to printf5.o(i._printf_core) for _printf_core
    printf5.o(i.__0fprintf$5) refers to hal_uart.o(i.fputc) for fputc
    printf5.o(i.__0printf$5) refers to printf5.o(i._printf_core) for _printf_core
    printf5.o(i.__0printf$5) refers to hal_uart.o(i.fputc) for fputc
    printf5.o(i.__0printf$5) refers to hal_uart.o(.data) for __stdout
    printf5.o(i.__0snprintf$5) refers to printf5.o(i._printf_core) for _printf_core
    printf5.o(i.__0snprintf$5) refers to printf5.o(i._snputc) for _snputc
    printf5.o(i.__0sprintf$5) refers to printf5.o(i._printf_core) for _printf_core
    printf5.o(i.__0sprintf$5) refers to printf5.o(i._sputc) for _sputc
    printf5.o(i.__0vfprintf$5) refers to printf5.o(i._printf_core) for _printf_core
    printf5.o(i.__0vfprintf$5) refers to hal_uart.o(i.fputc) for fputc
    printf5.o(i.__0vprintf$5) refers to printf5.o(i._printf_core) for _printf_core
    printf5.o(i.__0vprintf$5) refers to hal_uart.o(i.fputc) for fputc
    printf5.o(i.__0vprintf$5) refers to hal_uart.o(.data) for __stdout
    printf5.o(i.__0vsnprintf$5) refers to printf5.o(i._printf_core) for _printf_core
    printf5.o(i.__0vsnprintf$5) refers to printf5.o(i._snputc) for _snputc
    printf5.o(i.__0vsprintf$5) refers to printf5.o(i._printf_core) for _printf_core
    printf5.o(i.__0vsprintf$5) refers to printf5.o(i._sputc) for _sputc
    printf5.o(i._printf_core) refers to uldiv.o(.text) for __aeabi_uldivmod
    printf6.o(i.__0fprintf$6) refers to printf6.o(i._printf_core) for _printf_core
    printf6.o(i.__0fprintf$6) refers to hal_uart.o(i.fputc) for fputc
    printf6.o(i.__0printf$6) refers to printf6.o(i._printf_core) for _printf_core
    printf6.o(i.__0printf$6) refers to hal_uart.o(i.fputc) for fputc
    printf6.o(i.__0printf$6) refers to hal_uart.o(.data) for __stdout
    printf6.o(i.__0snprintf$6) refers to printf6.o(i._printf_core) for _printf_core
    printf6.o(i.__0snprintf$6) refers to printf6.o(i._snputc) for _snputc
    printf6.o(i.__0sprintf$6) refers to printf6.o(i._printf_core) for _printf_core
    printf6.o(i.__0sprintf$6) refers to printf6.o(i._sputc) for _sputc
    printf6.o(i.__0vfprintf$6) refers to printf6.o(i._printf_core) for _printf_core
    printf6.o(i.__0vfprintf$6) refers to hal_uart.o(i.fputc) for fputc
    printf6.o(i.__0vprintf$6) refers to printf6.o(i._printf_core) for _printf_core
    printf6.o(i.__0vprintf$6) refers to hal_uart.o(i.fputc) for fputc
    printf6.o(i.__0vprintf$6) refers to hal_uart.o(.data) for __stdout
    printf6.o(i.__0vsnprintf$6) refers to printf6.o(i._printf_core) for _printf_core
    printf6.o(i.__0vsnprintf$6) refers to printf6.o(i._snputc) for _snputc
    printf6.o(i.__0vsprintf$6) refers to printf6.o(i._printf_core) for _printf_core
    printf6.o(i.__0vsprintf$6) refers to printf6.o(i._sputc) for _sputc
    printf6.o(i._printf_core) refers to printf6.o(i._printf_pre_padding) for _printf_pre_padding
    printf6.o(i._printf_core) refers to uidiv.o(.text) for __aeabi_uidivmod
    printf6.o(i._printf_core) refers to printf6.o(i._printf_post_padding) for _printf_post_padding
    printf7.o(i.__0fprintf$7) refers to printf7.o(i._printf_core) for _printf_core
    printf7.o(i.__0fprintf$7) refers to hal_uart.o(i.fputc) for fputc
    printf7.o(i.__0printf$7) refers to printf7.o(i._printf_core) for _printf_core
    printf7.o(i.__0printf$7) refers to hal_uart.o(i.fputc) for fputc
    printf7.o(i.__0printf$7) refers to hal_uart.o(.data) for __stdout
    printf7.o(i.__0snprintf$7) refers to printf7.o(i._printf_core) for _printf_core
    printf7.o(i.__0snprintf$7) refers to printf7.o(i._snputc) for _snputc
    printf7.o(i.__0sprintf$7) refers to printf7.o(i._printf_core) for _printf_core
    printf7.o(i.__0sprintf$7) refers to printf7.o(i._sputc) for _sputc
    printf7.o(i.__0vfprintf$7) refers to printf7.o(i._printf_core) for _printf_core
    printf7.o(i.__0vfprintf$7) refers to hal_uart.o(i.fputc) for fputc
    printf7.o(i.__0vprintf$7) refers to printf7.o(i._printf_core) for _printf_core
    printf7.o(i.__0vprintf$7) refers to hal_uart.o(i.fputc) for fputc
    printf7.o(i.__0vprintf$7) refers to hal_uart.o(.data) for __stdout
    printf7.o(i.__0vsnprintf$7) refers to printf7.o(i._printf_core) for _printf_core
    printf7.o(i.__0vsnprintf$7) refers to printf7.o(i._snputc) for _snputc
    printf7.o(i.__0vsprintf$7) refers to printf7.o(i._printf_core) for _printf_core
    printf7.o(i.__0vsprintf$7) refers to printf7.o(i._sputc) for _sputc
    printf7.o(i._printf_core) refers to printf7.o(i._printf_pre_padding) for _printf_pre_padding
    printf7.o(i._printf_core) refers to uldiv.o(.text) for __aeabi_uldivmod
    printf7.o(i._printf_core) refers to printf7.o(i._printf_post_padding) for _printf_post_padding
    printf8.o(i.__0fprintf$8) refers to printf8.o(i._printf_core) for _printf_core
    printf8.o(i.__0fprintf$8) refers to hal_uart.o(i.fputc) for fputc
    printf8.o(i.__0printf$8) refers to printf8.o(i._printf_core) for _printf_core
    printf8.o(i.__0printf$8) refers to hal_uart.o(i.fputc) for fputc
    printf8.o(i.__0printf$8) refers to hal_uart.o(.data) for __stdout
    printf8.o(i.__0snprintf$8) refers to printf8.o(i._printf_core) for _printf_core
    printf8.o(i.__0snprintf$8) refers to printf8.o(i._snputc) for _snputc
    printf8.o(i.__0sprintf$8) refers to printf8.o(i._printf_core) for _printf_core
    printf8.o(i.__0sprintf$8) refers to printf8.o(i._sputc) for _sputc
    printf8.o(i.__0vfprintf$8) refers to printf8.o(i._printf_core) for _printf_core
    printf8.o(i.__0vfprintf$8) refers to hal_uart.o(i.fputc) for fputc
    printf8.o(i.__0vprintf$8) refers to printf8.o(i._printf_core) for _printf_core
    printf8.o(i.__0vprintf$8) refers to hal_uart.o(i.fputc) for fputc
    printf8.o(i.__0vprintf$8) refers to hal_uart.o(.data) for __stdout
    printf8.o(i.__0vsnprintf$8) refers to printf8.o(i._printf_core) for _printf_core
    printf8.o(i.__0vsnprintf$8) refers to printf8.o(i._snputc) for _snputc
    printf8.o(i.__0vsprintf$8) refers to printf8.o(i._printf_core) for _printf_core
    printf8.o(i.__0vsprintf$8) refers to printf8.o(i._sputc) for _sputc
    printf8.o(i._printf_core) refers to printf8.o(i._printf_pre_padding) for _printf_pre_padding
    printf8.o(i._printf_core) refers to uldiv.o(.text) for __aeabi_uldivmod
    printf8.o(i._printf_core) refers to printf8.o(i._printf_post_padding) for _printf_post_padding
    printfa.o(i.__0fprintf) refers (Special) to iusefp.o(.text) for __I$use$fp
    printfa.o(i.__0fprintf) refers to printfa.o(i._printf_core) for _printf_core
    printfa.o(i.__0fprintf) refers to hal_uart.o(i.fputc) for fputc
    printfa.o(i.__0printf) refers (Special) to iusefp.o(.text) for __I$use$fp
    printfa.o(i.__0printf) refers to printfa.o(i._printf_core) for _printf_core
    printfa.o(i.__0printf) refers to hal_uart.o(i.fputc) for fputc
    printfa.o(i.__0printf) refers to hal_uart.o(.data) for __stdout
    printfa.o(i.__0snprintf) refers (Special) to iusefp.o(.text) for __I$use$fp
    printfa.o(i.__0snprintf) refers to printfa.o(i._printf_core) for _printf_core
    printfa.o(i.__0snprintf) refers to printfa.o(i._snputc) for _snputc
    printfa.o(i.__0sprintf) refers (Special) to iusefp.o(.text) for __I$use$fp
    printfa.o(i.__0sprintf) refers to printfa.o(i._printf_core) for _printf_core
    printfa.o(i.__0sprintf) refers to printfa.o(i._sputc) for _sputc
    printfa.o(i.__0vfprintf) refers (Special) to iusefp.o(.text) for __I$use$fp
    printfa.o(i.__0vfprintf) refers to printfa.o(i._printf_core) for _printf_core
    printfa.o(i.__0vfprintf) refers to hal_uart.o(i.fputc) for fputc
    printfa.o(i.__0vprintf) refers (Special) to iusefp.o(.text) for __I$use$fp
    printfa.o(i.__0vprintf) refers to printfa.o(i._printf_core) for _printf_core
    printfa.o(i.__0vprintf) refers to hal_uart.o(i.fputc) for fputc
    printfa.o(i.__0vprintf) refers to hal_uart.o(.data) for __stdout
    printfa.o(i.__0vsnprintf) refers (Special) to iusefp.o(.text) for __I$use$fp
    printfa.o(i.__0vsnprintf) refers to printfa.o(i._printf_core) for _printf_core
    printfa.o(i.__0vsnprintf) refers to printfa.o(i._snputc) for _snputc
    printfa.o(i.__0vsprintf) refers (Special) to iusefp.o(.text) for __I$use$fp
    printfa.o(i.__0vsprintf) refers to printfa.o(i._printf_core) for _printf_core
    printfa.o(i.__0vsprintf) refers to printfa.o(i._sputc) for _sputc
    printfa.o(i._fp_digits) refers (Special) to iusefp.o(.text) for __I$use$fp
    printfa.o(i._fp_digits) refers to dmul.o(.text) for __aeabi_dmul
    printfa.o(i._fp_digits) refers to ddiv.o(.text) for __aeabi_ddiv
    printfa.o(i._fp_digits) refers to cdrcmple.o(.text) for __aeabi_cdrcmple
    printfa.o(i._fp_digits) refers to dadd.o(.text) for __aeabi_dadd
    printfa.o(i._fp_digits) refers to dfixul.o(.text) for __aeabi_d2ulz
    printfa.o(i._fp_digits) refers to uldiv.o(.text) for __aeabi_uldivmod
    printfa.o(i._printf_core) refers (Special) to iusefp.o(.text) for __I$use$fp
    printfa.o(i._printf_core) refers to printfa.o(i._printf_pre_padding) for _printf_pre_padding
    printfa.o(i._printf_core) refers to uldiv.o(.text) for __aeabi_uldivmod
    printfa.o(i._printf_core) refers to printfa.o(i._printf_post_padding) for _printf_post_padding
    printfa.o(i._printf_core) refers to printfa.o(i._fp_digits) for _fp_digits
    printfa.o(i._printf_core) refers to uidiv.o(.text) for __aeabi_uidivmod
    printfa.o(i._printf_post_padding) refers (Special) to iusefp.o(.text) for __I$use$fp
    printfa.o(i._printf_pre_padding) refers (Special) to iusefp.o(.text) for __I$use$fp
    printfa.o(i._snputc) refers (Special) to iusefp.o(.text) for __I$use$fp
    printfa.o(i._sputc) refers (Special) to iusefp.o(.text) for __I$use$fp
    __0sscanf.o(.text) refers to scanf_char.o(.text) for __vfscanf_char
    __0sscanf.o(.text) refers to _sgetc.o(.text) for _sgetc
    _scanf_int.o(.text) refers to _chval.o(.text) for _chval
    dadd.o(.text) refers (Special) to iusefp.o(.text) for __I$use$fp
    dadd.o(.text) refers to llshl.o(.text) for __aeabi_llsl
    dadd.o(.text) refers to llsshr.o(.text) for __aeabi_lasr
    dadd.o(.text) refers to depilogue.o(.text) for _double_epilogue
    dmul.o(.text) refers (Special) to iusefp.o(.text) for __I$use$fp
    dmul.o(.text) refers to depilogue.o(.text) for _double_epilogue
    ddiv.o(.text) refers (Special) to iusefp.o(.text) for __I$use$fp
    ddiv.o(.text) refers to depilogue.o(.text) for _double_round
    dfltui.o(.text) refers (Special) to iusefp.o(.text) for __I$use$fp
    dfltui.o(.text) refers to depilogue.o(.text) for _double_epilogue
    dfixui.o(.text) refers (Special) to iusefp.o(.text) for __I$use$fp
    dfixui.o(.text) refers to llushr.o(.text) for __aeabi_llsr
    f2d.o(.text) refers (Special) to iusefp.o(.text) for __I$use$fp
    cdcmple.o(.text) refers (Special) to iusefp.o(.text) for __I$use$fp
    cdrcmple.o(.text) refers (Special) to iusefp.o(.text) for __I$use$fp
    d2f.o(.text) refers (Special) to iusefp.o(.text) for __I$use$fp
    d2f.o(.text) refers to fepilogue.o(.text) for _float_round
    cos_i.o(i.__kernel_cos) refers (Special) to iusefp.o(.text) for __I$use$fp
    cos_i.o(i.__kernel_cos) refers to dfixi.o(.text) for __aeabi_d2iz
    cos_i.o(i.__kernel_cos) refers to dmul.o(.text) for __aeabi_dmul
    cos_i.o(i.__kernel_cos) refers to poly.o(i.__kernel_poly) for __kernel_poly
    cos_i.o(i.__kernel_cos) refers to dadd.o(.text) for __aeabi_dsub
    cos_i.o(i.__kernel_cos) refers to cos_i.o(.constdata) for .constdata
    cos_i.o(.constdata) refers (Special) to iusefp.o(.text) for __I$use$fp
    dunder.o(i.__mathlib_dbl_divzero) refers to ddiv.o(.text) for __aeabi_ddiv
    dunder.o(i.__mathlib_dbl_infnan) refers to dadd.o(.text) for __aeabi_dadd
    dunder.o(i.__mathlib_dbl_infnan2) refers to dadd.o(.text) for __aeabi_dadd
    dunder.o(i.__mathlib_dbl_invalid) refers to ddiv.o(.text) for __aeabi_ddiv
    dunder.o(i.__mathlib_dbl_overflow) refers to dmul.o(.text) for __aeabi_dmul
    dunder.o(i.__mathlib_dbl_posinfnan) refers to dmul.o(.text) for __aeabi_dmul
    dunder.o(i.__mathlib_dbl_underflow) refers to dmul.o(.text) for __aeabi_dmul
    fabs.o(i.__hardfp_fabs) refers (Special) to iusefp.o(.text) for __I$use$fp
    fabs.o(i.__softfp_fabs) refers (Special) to iusefp.o(.text) for __I$use$fp
    fabs.o(i.fabs) refers (Special) to iusefp.o(.text) for __I$use$fp
    fpclassify.o(i.__ARM_fpclassify) refers (Special) to iusefp.o(.text) for __I$use$fp
    poly.o(i.__kernel_poly) refers (Special) to iusefp.o(.text) for __I$use$fp
    poly.o(i.__kernel_poly) refers to dmul.o(.text) for __aeabi_dmul
    poly.o(i.__kernel_poly) refers to dadd.o(.text) for __aeabi_dadd
    rred.o(i.__ieee754_rem_pio2) refers (Special) to iusefp.o(.text) for __I$use$fp
    rred.o(i.__ieee754_rem_pio2) refers to dadd.o(.text) for __aeabi_dsub
    rred.o(i.__ieee754_rem_pio2) refers to fabs.o(i.fabs) for fabs
    rred.o(i.__ieee754_rem_pio2) refers to dmul.o(.text) for __aeabi_dmul
    rred.o(i.__ieee754_rem_pio2) refers to dfixi.o(.text) for __aeabi_d2iz
    rred.o(i.__ieee754_rem_pio2) refers to dflti.o(.text) for __aeabi_i2d
    rred.o(i.__ieee754_rem_pio2) refers to dfltui.o(.text) for __aeabi_ui2d
    rred.o(i.__ieee754_rem_pio2) refers to rred.o(.constdata) for .constdata
    rred.o(i.__use_accurate_range_reduction) refers (Special) to iusefp.o(.text) for __I$use$fp
    rred.o(.constdata) refers (Special) to iusefp.o(.text) for __I$use$fp
    sin_i.o(i.__kernel_sin) refers (Special) to iusefp.o(.text) for __I$use$fp
    sin_i.o(i.__kernel_sin) refers to fpclassify.o(i.__ARM_fpclassify) for __ARM_fpclassify
    sin_i.o(i.__kernel_sin) refers to dunder.o(i.__mathlib_dbl_underflow) for __mathlib_dbl_underflow
    sin_i.o(i.__kernel_sin) refers to dmul.o(.text) for __aeabi_dmul
    sin_i.o(i.__kernel_sin) refers to poly.o(i.__kernel_poly) for __kernel_poly
    sin_i.o(i.__kernel_sin) refers to dadd.o(.text) for __aeabi_dsub
    sin_i.o(i.__kernel_sin) refers to sin_i.o(.constdata) for .constdata
    sin_i.o(.constdata) refers (Special) to iusefp.o(.text) for __I$use$fp
    sin_i_x.o(i.____kernel_sin$lsc) refers (Special) to iusefp.o(.text) for __I$use$fp
    sin_i_x.o(i.____kernel_sin$lsc) refers to dmul.o(.text) for __aeabi_dmul
    sin_i_x.o(i.____kernel_sin$lsc) refers to poly.o(i.__kernel_poly) for __kernel_poly
    sin_i_x.o(i.____kernel_sin$lsc) refers to dadd.o(.text) for __aeabi_dsub
    sin_i_x.o(i.____kernel_sin$lsc) refers to sin_i_x.o(.constdata) for .constdata
    sin_i_x.o(.constdata) refers (Special) to iusefp.o(.text) for __I$use$fp
    entry2.o(.ARM.Collect$$$$00000001) refers to entry2.o(.ARM.Collect$$$$00002712) for __lit__00000000
    entry2.o(.ARM.Collect$$$$00002712) refers to startup_at32f435_437.o(STACK) for __initial_sp
    entry2.o(__vectab_stack_and_reset_area) refers to startup_at32f435_437.o(STACK) for __initial_sp
    entry2.o(__vectab_stack_and_reset_area) refers to entry.o(.ARM.Collect$$$$00000000) for __main
    entry5.o(.ARM.Collect$$$$00000004) refers to init.o(.text) for __scatterload
    entry9a.o(.ARM.Collect$$$$0000000B) refers to main.o(i.main) for main
    entry9b.o(.ARM.Collect$$$$0000000C) refers to main.o(i.main) for main
    localtime_w.o(.text) refers to localtime_i.o(.text) for _localtime
    localtime_w.o(.text) refers to localtime_w.o(.bss) for .bss
    localtime_i.o(.text) refers to localtime_i.o(.constdata) for .constdata
    errno.o(i.__aeabi_errno_addr) refers to errno.o(.data) for .data
    errno.o(i.__read_errno) refers to errno.o(.data) for .data
    errno.o(i.__set_errno) refers to errno.o(.data) for .data
    scanf_char.o(.text) refers to _scanf.o(.text) for __vfscanf
    scanf_char.o(.text) refers to isspace_c.o(.text) for isspace
    strtod.o(.text) refers to scanf_fp.o(.text) for _scanf_real
    strtod.o(.text) refers to _sgetc.o(.text) for _sgetc
    strtod.o(.text) refers to isspace_c.o(.text) for isspace
    depilogue.o(.text) refers to llshl.o(.text) for __aeabi_llsl
    depilogue.o(.text) refers to llushr.o(.text) for __aeabi_llsr
    dsqrt.o(.text) refers to llushr.o(.text) for __aeabi_llsr
    dsqrt.o(.text) refers to depilogue.o(.text) for _double_round
    dfixul.o(.text) refers to llushr.o(.text) for __aeabi_llsr
    dfixul.o(.text) refers to llshl.o(.text) for __aeabi_llsl
    init.o(.text) refers to entry5.o(.ARM.Collect$$$$00000004) for __main_after_scatterload
    isspace_c.o(.text) refers to ctype_c.o(.text) for __ctype_lookup
    _scanf.o(.text) refers (Weak) to scanf_fp.o(.text) for _scanf_real
    _scanf.o(.text) refers (Weak) to _scanf_int.o(.text) for _scanf_int
    scanf_fp.o(.text) refers (Special) to iusefp.o(.text) for __I$use$fp
    scanf_fp.o(.text) refers to dfltul.o(.text) for __aeabi_ul2d
    scanf_fp.o(.text) refers to dmul.o(.text) for __aeabi_dmul
    scanf_fp.o(.text) refers to ddiv.o(.text) for __aeabi_ddiv
    scanf_fp.o(.text) refers to scanf_fp.o(i._is_digit) for _is_digit
    scanf_fp.o(.text) refers to d2f.o(.text) for __aeabi_d2f
    dflti.o(.text) refers to depilogue.o(.text) for _double_epilogue
    dfixi.o(.text) refers to llushr.o(.text) for __aeabi_llsr
    ctype_c.o(.text) refers to ctype_c.o(.constdata) for .constdata
    dfltul.o(.text) refers to depilogue.o(.text) for _double_epilogue
    scanf_fp.o(i._is_digit) refers (Special) to iusefp.o(.text) for __I$use$fp


==============================================================================

Removing Unused input sections from the image.

    Removing api_common.o(i.be_big_endian), (26 bytes).
    Removing api_common.o(i.bit_count), (20 bytes).
    Removing api_common.o(i.calc_parity), (24 bytes).
    Removing api_common.o(i.checksum), (24 bytes).
    Removing api_common.o(i.convert_str_to_uint8), (52 bytes).
    Removing api_common.o(i.print_multi_hex_16), (52 bytes).
    Removing api_common.o(i.print_multi_hex_32), (52 bytes).
    Removing api_common.o(i.print_multi_hex_8), (48 bytes).
    Removing api_common.o(i.print_single_hex_16), (32 bytes).
    Removing api_common.o(i.print_single_hex_32), (32 bytes).
    Removing api_common.o(i.print_single_hex_8), (32 bytes).
    Removing system_at32f435_437.o(.rev16_text), (4 bytes).
    Removing system_at32f435_437.o(.revsh_text), (4 bytes).
    Removing system_at32f435_437.o(.rrx_text), (6 bytes).
    Removing startup_at32f435_437.o(HEAP), (512 bytes).
    Removing at32f435_437_adc.o(.rev16_text), (4 bytes).
    Removing at32f435_437_adc.o(.revsh_text), (4 bytes).
    Removing at32f435_437_adc.o(.rrx_text), (6 bytes).
    Removing at32f435_437_adc.o(i.adc_calibration_init), (10 bytes).
    Removing at32f435_437_adc.o(i.adc_calibration_init_status_get), (14 bytes).
    Removing at32f435_437_adc.o(i.adc_calibration_start), (10 bytes).
    Removing at32f435_437_adc.o(i.adc_calibration_status_get), (14 bytes).
    Removing at32f435_437_adc.o(i.adc_calibration_value_set), (6 bytes).
    Removing at32f435_437_adc.o(i.adc_combine_ordinary_conversion_data_get), (12 bytes).
    Removing at32f435_437_adc.o(i.adc_conversion_stop), (10 bytes).
    Removing at32f435_437_adc.o(i.adc_conversion_stop_status_get), (14 bytes).
    Removing at32f435_437_adc.o(i.adc_dma_mode_enable), (10 bytes).
    Removing at32f435_437_adc.o(i.adc_dma_request_repeat_enable), (10 bytes).
    Removing at32f435_437_adc.o(i.adc_flag_clear), (6 bytes).
    Removing at32f435_437_adc.o(i.adc_flag_get), (14 bytes).
    Removing at32f435_437_adc.o(i.adc_interrupt_enable), (22 bytes).
    Removing at32f435_437_adc.o(i.adc_interrupt_flag_get), (76 bytes).
    Removing at32f435_437_adc.o(i.adc_occe_each_conversion_enable), (10 bytes).
    Removing at32f435_437_adc.o(i.adc_ordinary_conversion_trigger_set), (40 bytes).
    Removing at32f435_437_adc.o(i.adc_ordinary_oversample_enable), (12 bytes).
    Removing at32f435_437_adc.o(i.adc_ordinary_oversample_restart_set), (12 bytes).
    Removing at32f435_437_adc.o(i.adc_ordinary_oversample_trig_enable), (12 bytes).
    Removing at32f435_437_adc.o(i.adc_ordinary_part_count_set), (12 bytes).
    Removing at32f435_437_adc.o(i.adc_ordinary_part_mode_enable), (10 bytes).
    Removing at32f435_437_adc.o(i.adc_ordinary_software_trigger_status_get), (14 bytes).
    Removing at32f435_437_adc.o(i.adc_oversample_ratio_shift_set), (20 bytes).
    Removing at32f435_437_adc.o(i.adc_preempt_auto_mode_enable), (10 bytes).
    Removing at32f435_437_adc.o(i.adc_preempt_channel_length_set), (12 bytes).
    Removing at32f435_437_adc.o(i.adc_preempt_channel_set), (108 bytes).
    Removing at32f435_437_adc.o(i.adc_preempt_conversion_data_get), (36 bytes).
    Removing at32f435_437_adc.o(i.adc_preempt_conversion_trigger_set), (40 bytes).
    Removing at32f435_437_adc.o(i.adc_preempt_offset_value_set), (54 bytes).
    Removing at32f435_437_adc.o(i.adc_preempt_oversample_enable), (12 bytes).
    Removing at32f435_437_adc.o(i.adc_preempt_part_mode_enable), (10 bytes).
    Removing at32f435_437_adc.o(i.adc_preempt_software_trigger_enable), (18 bytes).
    Removing at32f435_437_adc.o(i.adc_preempt_software_trigger_status_get), (14 bytes).
    Removing at32f435_437_adc.o(i.adc_reset), (28 bytes).
    Removing at32f435_437_adc.o(i.adc_resolution_set), (10 bytes).
    Removing at32f435_437_adc.o(i.adc_voltage_battery_enable), (20 bytes).
    Removing at32f435_437_adc.o(i.adc_voltage_monitor_enable), (32 bytes).
    Removing at32f435_437_adc.o(i.adc_voltage_monitor_single_channel_select), (10 bytes).
    Removing at32f435_437_adc.o(i.adc_voltage_monitor_threshold_value_set), (18 bytes).
    Removing at32f435_437_crm.o(.rev16_text), (4 bytes).
    Removing at32f435_437_crm.o(.revsh_text), (4 bytes).
    Removing at32f435_437_crm.o(.rrx_text), (6 bytes).
    Removing at32f435_437_crm.o(i.crm_clkout_div_set), (48 bytes).
    Removing at32f435_437_crm.o(i.crm_clkout_to_tmr10_enable), (16 bytes).
    Removing at32f435_437_crm.o(i.crm_clock_failure_detection_enable), (16 bytes).
    Removing at32f435_437_crm.o(i.crm_clock_out1_set), (16 bytes).
    Removing at32f435_437_crm.o(i.crm_clock_out2_set), (44 bytes).
    Removing at32f435_437_crm.o(i.crm_emac_output_pulse_set), (16 bytes).
    Removing at32f435_437_crm.o(i.crm_flag_clear), (116 bytes).
    Removing at32f435_437_crm.o(i.crm_hext_bypass), (16 bytes).
    Removing at32f435_437_crm.o(i.crm_hick_clock_calibration_set), (40 bytes).
    Removing at32f435_437_crm.o(i.crm_hick_clock_trimming_set), (16 bytes).
    Removing at32f435_437_crm.o(i.crm_hick_divider_select), (16 bytes).
    Removing at32f435_437_crm.o(i.crm_hick_sclk_frequency_select), (28 bytes).
    Removing at32f435_437_crm.o(i.crm_interrupt_enable), (24 bytes).
    Removing at32f435_437_crm.o(i.crm_interrupt_flag_get), (116 bytes).
    Removing at32f435_437_crm.o(i.crm_lext_bypass), (16 bytes).
    Removing at32f435_437_crm.o(i.crm_periph_lowpower_mode_enable), (44 bytes).
    Removing at32f435_437_crm.o(i.crm_pll_parameter_calculate), (204 bytes).
    Removing at32f435_437_crm.o(i.crm_usb_clock_div_set), (16 bytes).
    Removing at32f435_437_crm.o(i.crm_usb_clock_source_select), (28 bytes).
    Removing at32f435_437_dma.o(.rev16_text), (4 bytes).
    Removing at32f435_437_dma.o(.revsh_text), (4 bytes).
    Removing at32f435_437_dma.o(.rrx_text), (6 bytes).
    Removing at32f435_437_dma.o(i.dma_channel_enable), (10 bytes).
    Removing at32f435_437_dma.o(i.dma_data_number_get), (6 bytes).
    Removing at32f435_437_dma.o(i.dma_data_number_set), (4 bytes).
    Removing at32f435_437_dma.o(i.dma_default_para_init), (24 bytes).
    Removing at32f435_437_dma.o(i.dma_flag_clear), (28 bytes).
    Removing at32f435_437_dma.o(i.dma_flag_get), (36 bytes).
    Removing at32f435_437_dma.o(i.dma_flexible_config), (22 bytes).
    Removing at32f435_437_dma.o(i.dma_init), (98 bytes).
    Removing at32f435_437_dma.o(i.dma_interrupt_enable), (16 bytes).
    Removing at32f435_437_dma.o(i.dma_interrupt_flag_get), (36 bytes).
    Removing at32f435_437_dma.o(i.dma_reset), (84 bytes).
    Removing at32f435_437_dma.o(i.dmamux_enable), (14 bytes).
    Removing at32f435_437_dma.o(i.dmamux_generator_config), (44 bytes).
    Removing at32f435_437_dma.o(i.dmamux_generator_default_para_init), (12 bytes).
    Removing at32f435_437_dma.o(i.dmamux_generator_flag_clear), (6 bytes).
    Removing at32f435_437_dma.o(i.dmamux_generator_flag_get), (12 bytes).
    Removing at32f435_437_dma.o(i.dmamux_generator_interrupt_enable), (20 bytes).
    Removing at32f435_437_dma.o(i.dmamux_generator_interrupt_flag_get), (96 bytes).
    Removing at32f435_437_dma.o(i.dmamux_init), (10 bytes).
    Removing at32f435_437_dma.o(i.dmamux_sync_config), (54 bytes).
    Removing at32f435_437_dma.o(i.dmamux_sync_default_para_init), (14 bytes).
    Removing at32f435_437_dma.o(i.dmamux_sync_flag_clear), (6 bytes).
    Removing at32f435_437_dma.o(i.dmamux_sync_flag_get), (12 bytes).
    Removing at32f435_437_dma.o(i.dmamux_sync_interrupt_enable), (20 bytes).
    Removing at32f435_437_dma.o(i.dmamux_sync_interrupt_flag_get), (96 bytes).
    Removing at32f435_437_ertc.o(.rev16_text), (4 bytes).
    Removing at32f435_437_ertc.o(.revsh_text), (4 bytes).
    Removing at32f435_437_ertc.o(.rrx_text), (6 bytes).
    Removing at32f435_437_ertc.o(i.ertc_alarm_enable), (72 bytes).
    Removing at32f435_437_ertc.o(i.ertc_alarm_get), (112 bytes).
    Removing at32f435_437_ertc.o(i.ertc_alarm_mask_set), (44 bytes).
    Removing at32f435_437_ertc.o(i.ertc_alarm_set), (124 bytes).
    Removing at32f435_437_ertc.o(i.ertc_alarm_sub_second_get), (24 bytes).
    Removing at32f435_437_ertc.o(i.ertc_alarm_sub_second_set), (52 bytes).
    Removing at32f435_437_ertc.o(i.ertc_alarm_week_date_select), (44 bytes).
    Removing at32f435_437_ertc.o(i.ertc_bpr_data_read), (20 bytes).
    Removing at32f435_437_ertc.o(i.ertc_bpr_data_write), (20 bytes).
    Removing at32f435_437_ertc.o(i.ertc_cal_output_enable), (32 bytes).
    Removing at32f435_437_ertc.o(i.ertc_cal_output_select), (32 bytes).
    Removing at32f435_437_ertc.o(i.ertc_coarse_calibration_enable), (52 bytes).
    Removing at32f435_437_ertc.o(i.ertc_coarse_calibration_set), (64 bytes).
    Removing at32f435_437_ertc.o(i.ertc_daylight_bpr_get), (16 bytes).
    Removing at32f435_437_ertc.o(i.ertc_daylight_set), (52 bytes).
    Removing at32f435_437_ertc.o(i.ertc_direct_read_enable), (32 bytes).
    Removing at32f435_437_ertc.o(i.ertc_flag_get), (20 bytes).
    Removing at32f435_437_ertc.o(i.ertc_init_mode_exit), (16 bytes).
    Removing at32f435_437_ertc.o(i.ertc_interrupt_enable), (68 bytes).
    Removing at32f435_437_ertc.o(i.ertc_interrupt_get), (36 bytes).
    Removing at32f435_437_ertc.o(i.ertc_output_set), (56 bytes).
    Removing at32f435_437_ertc.o(i.ertc_refer_clock_detect_enable), (56 bytes).
    Removing at32f435_437_ertc.o(i.ertc_smooth_calibration_config), (96 bytes).
    Removing at32f435_437_ertc.o(i.ertc_sub_second_get), (16 bytes).
    Removing at32f435_437_ertc.o(i.ertc_tamper_1_pin_select), (32 bytes).
    Removing at32f435_437_ertc.o(i.ertc_tamper_detect_freq_set), (32 bytes).
    Removing at32f435_437_ertc.o(i.ertc_tamper_enable), (44 bytes).
    Removing at32f435_437_ertc.o(i.ertc_tamper_filter_set), (32 bytes).
    Removing at32f435_437_ertc.o(i.ertc_tamper_precharge_set), (32 bytes).
    Removing at32f435_437_ertc.o(i.ertc_tamper_pull_up_enable), (40 bytes).
    Removing at32f435_437_ertc.o(i.ertc_tamper_timestamp_enable), (32 bytes).
    Removing at32f435_437_ertc.o(i.ertc_tamper_valid_edge_set), (44 bytes).
    Removing at32f435_437_ertc.o(i.ertc_time_adjust), (88 bytes).
    Removing at32f435_437_ertc.o(i.ertc_timestamp_enable), (32 bytes).
    Removing at32f435_437_ertc.o(i.ertc_timestamp_get), (108 bytes).
    Removing at32f435_437_ertc.o(i.ertc_timestamp_pin_select), (32 bytes).
    Removing at32f435_437_ertc.o(i.ertc_timestamp_sub_second_get), (12 bytes).
    Removing at32f435_437_ertc.o(i.ertc_timestamp_valid_edge_set), (32 bytes).
    Removing at32f435_437_ertc.o(i.ertc_wait_flag), (44 bytes).
    Removing at32f435_437_ertc.o(i.ertc_wakeup_clock_set), (32 bytes).
    Removing at32f435_437_ertc.o(i.ertc_wakeup_counter_get), (12 bytes).
    Removing at32f435_437_ertc.o(i.ertc_wakeup_counter_set), (32 bytes).
    Removing at32f435_437_ertc.o(i.ertc_wakeup_enable), (52 bytes).
    Removing at32f435_437_ertc.o(i.ertc_write_protect_enable), (12 bytes).
    Removing at32f435_437_exint.o(.rev16_text), (4 bytes).
    Removing at32f435_437_exint.o(.revsh_text), (4 bytes).
    Removing at32f435_437_exint.o(.rrx_text), (6 bytes).
    Removing at32f435_437_exint.o(i.exint_default_para_init), (14 bytes).
    Removing at32f435_437_exint.o(i.exint_event_enable), (24 bytes).
    Removing at32f435_437_exint.o(i.exint_flag_get), (20 bytes).
    Removing at32f435_437_exint.o(i.exint_init), (96 bytes).
    Removing at32f435_437_exint.o(i.exint_interrupt_enable), (24 bytes).
    Removing at32f435_437_exint.o(i.exint_reset), (40 bytes).
    Removing at32f435_437_exint.o(i.exint_software_interrupt_event_generate), (16 bytes).
    Removing at32f435_437_flash.o(.rev16_text), (4 bytes).
    Removing at32f435_437_flash.o(.revsh_text), (4 bytes).
    Removing at32f435_437_flash.o(.rrx_text), (6 bytes).
    Removing at32f435_437_flash.o(i.flash_bank1_erase), (40 bytes).
    Removing at32f435_437_flash.o(i.flash_bank1_lock), (16 bytes).
    Removing at32f435_437_flash.o(i.flash_bank1_unlock), (24 bytes).
    Removing at32f435_437_flash.o(i.flash_bank2_erase), (40 bytes).
    Removing at32f435_437_flash.o(i.flash_bank2_lock), (16 bytes).
    Removing at32f435_437_flash.o(i.flash_bank2_unlock), (24 bytes).
    Removing at32f435_437_flash.o(i.flash_block_erase), (108 bytes).
    Removing at32f435_437_flash.o(i.flash_byte_program), (88 bytes).
    Removing at32f435_437_flash.o(i.flash_continue_read_enable), (16 bytes).
    Removing at32f435_437_flash.o(i.flash_crc_calibrate), (48 bytes).
    Removing at32f435_437_flash.o(i.flash_eopb0_config), (68 bytes).
    Removing at32f435_437_flash.o(i.flash_epp_set), (208 bytes).
    Removing at32f435_437_flash.o(i.flash_epp_status_get), (20 bytes).
    Removing at32f435_437_flash.o(i.flash_fap_enable), (120 bytes).
    Removing at32f435_437_flash.o(i.flash_fap_status_get), (16 bytes).
    Removing at32f435_437_flash.o(i.flash_flag_clear), (32 bytes).
    Removing at32f435_437_flash.o(i.flash_flag_get), (56 bytes).
    Removing at32f435_437_flash.o(i.flash_halfword_program), (88 bytes).
    Removing at32f435_437_flash.o(i.flash_internal_all_erase), (80 bytes).
    Removing at32f435_437_flash.o(i.flash_interrupt_enable), (64 bytes).
    Removing at32f435_437_flash.o(i.flash_lock), (28 bytes).
    Removing at32f435_437_flash.o(i.flash_nzw_boost_enable), (16 bytes).
    Removing at32f435_437_flash.o(i.flash_operation_status_get), (40 bytes).
    Removing at32f435_437_flash.o(i.flash_operation_wait_for), (34 bytes).
    Removing at32f435_437_flash.o(i.flash_slib_disable), (40 bytes).
    Removing at32f435_437_flash.o(i.flash_slib_enable), (116 bytes).
    Removing at32f435_437_flash.o(i.flash_slib_end_sector_get), (12 bytes).
    Removing at32f435_437_flash.o(i.flash_slib_inststart_sector_get), (12 bytes).
    Removing at32f435_437_flash.o(i.flash_slib_remaining_count_get), (16 bytes).
    Removing at32f435_437_flash.o(i.flash_slib_start_sector_get), (12 bytes).
    Removing at32f435_437_flash.o(i.flash_slib_state_get), (20 bytes).
    Removing at32f435_437_flash.o(i.flash_ssb_set), (68 bytes).
    Removing at32f435_437_flash.o(i.flash_ssb_status_get), (16 bytes).
    Removing at32f435_437_flash.o(i.flash_user_system_data_erase), (120 bytes).
    Removing at32f435_437_flash.o(i.flash_user_system_data_program), (80 bytes).
    Removing at32f435_437_flash.o(.constdata), (8 bytes).
    Removing at32f435_437_gpio.o(.rev16_text), (4 bytes).
    Removing at32f435_437_gpio.o(.revsh_text), (4 bytes).
    Removing at32f435_437_gpio.o(.rrx_text), (6 bytes).
    Removing at32f435_437_gpio.o(i.gpio_input_data_read), (6 bytes).
    Removing at32f435_437_gpio.o(i.gpio_output_data_read), (6 bytes).
    Removing at32f435_437_gpio.o(i.gpio_pin_wp_config), (16 bytes).
    Removing at32f435_437_gpio.o(i.gpio_pins_huge_driven_config), (16 bytes).
    Removing at32f435_437_gpio.o(i.gpio_port_write), (4 bytes).
    Removing at32f435_437_gpio.o(i.gpio_reset), (164 bytes).
    Removing at32f435_437_pwc.o(.rev16_text), (4 bytes).
    Removing at32f435_437_pwc.o(.revsh_text), (4 bytes).
    Removing at32f435_437_pwc.o(.rrx_text), (6 bytes).
    Removing at32f435_437_pwc.o(i.pwc_deep_sleep_mode_enter), (44 bytes).
    Removing at32f435_437_pwc.o(i.pwc_flag_clear), (32 bytes).
    Removing at32f435_437_pwc.o(i.pwc_flag_get), (20 bytes).
    Removing at32f435_437_pwc.o(i.pwc_power_voltage_monitor_enable), (16 bytes).
    Removing at32f435_437_pwc.o(i.pwc_pvm_level_select), (16 bytes).
    Removing at32f435_437_pwc.o(i.pwc_reset), (28 bytes).
    Removing at32f435_437_pwc.o(i.pwc_sleep_mode_enter), (36 bytes).
    Removing at32f435_437_pwc.o(i.pwc_standby_mode_enter), (40 bytes).
    Removing at32f435_437_pwc.o(i.pwc_voltage_regulate_set), (16 bytes).
    Removing at32f435_437_pwc.o(i.pwc_wakeup_pin_enable), (24 bytes).
    Removing at32f435_437_misc.o(.rev16_text), (4 bytes).
    Removing at32f435_437_misc.o(.revsh_text), (4 bytes).
    Removing at32f435_437_misc.o(.rrx_text), (6 bytes).
    Removing at32f435_437_misc.o(i.nvic_lowpower_mode_config), (24 bytes).
    Removing at32f435_437_misc.o(i.nvic_system_reset), (36 bytes).
    Removing at32f435_437_tmr.o(.rev16_text), (4 bytes).
    Removing at32f435_437_tmr.o(.revsh_text), (4 bytes).
    Removing at32f435_437_tmr.o(.rrx_text), (6 bytes).
    Removing at32f435_437_tmr.o(i.tmr_32_bit_function_enable), (28 bytes).
    Removing at32f435_437_tmr.o(i.tmr_base_init), (14 bytes).
    Removing at32f435_437_tmr.o(i.tmr_brkdt_config), (72 bytes).
    Removing at32f435_437_tmr.o(i.tmr_brkdt_default_para_init), (18 bytes).
    Removing at32f435_437_tmr.o(i.tmr_channel1_input_select), (10 bytes).
    Removing at32f435_437_tmr.o(i.tmr_channel_buffer_enable), (10 bytes).
    Removing at32f435_437_tmr.o(i.tmr_channel_dma_select), (10 bytes).
    Removing at32f435_437_tmr.o(i.tmr_channel_enable), (74 bytes).
    Removing at32f435_437_tmr.o(i.tmr_channel_value_set), (36 bytes).
    Removing at32f435_437_tmr.o(i.tmr_clock_source_div_set), (10 bytes).
    Removing at32f435_437_tmr.o(i.tmr_cnt_dir_set), (10 bytes).
    Removing at32f435_437_tmr.o(i.tmr_counter_value_get), (4 bytes).
    Removing at32f435_437_tmr.o(i.tmr_counter_value_set), (4 bytes).
    Removing at32f435_437_tmr.o(i.tmr_div_value_get), (4 bytes).
    Removing at32f435_437_tmr.o(i.tmr_dma_control_config), (18 bytes).
    Removing at32f435_437_tmr.o(i.tmr_dma_request_enable), (22 bytes).
    Removing at32f435_437_tmr.o(i.tmr_encoder_mode_config), (70 bytes).
    Removing at32f435_437_tmr.o(i.tmr_external_clock_config), (28 bytes).
    Removing at32f435_437_tmr.o(i.tmr_external_clock_mode1_config), (26 bytes).
    Removing at32f435_437_tmr.o(i.tmr_external_clock_mode2_config), (18 bytes).
    Removing at32f435_437_tmr.o(i.tmr_flag_get), (14 bytes).
    Removing at32f435_437_tmr.o(i.tmr_force_output_set), (62 bytes).
    Removing at32f435_437_tmr.o(i.tmr_hall_select), (10 bytes).
    Removing at32f435_437_tmr.o(i.tmr_input_channel_filter_set), (50 bytes).
    Removing at32f435_437_tmr.o(i.tmr_input_default_para_init), (14 bytes).
    Removing at32f435_437_tmr.o(i.tmr_internal_clock_set), (10 bytes).
    Removing at32f435_437_tmr.o(i.tmr_one_cycle_mode_enable), (10 bytes).
    Removing at32f435_437_tmr.o(i.tmr_output_channel_buffer_enable), (62 bytes).
    Removing at32f435_437_tmr.o(i.tmr_output_channel_config), (214 bytes).
    Removing at32f435_437_tmr.o(i.tmr_output_channel_immediately_set), (62 bytes).
    Removing at32f435_437_tmr.o(i.tmr_output_channel_mode_select), (62 bytes).
    Removing at32f435_437_tmr.o(i.tmr_output_channel_polarity_set), (74 bytes).
    Removing at32f435_437_tmr.o(i.tmr_output_channel_switch_set), (62 bytes).
    Removing at32f435_437_tmr.o(i.tmr_output_default_para_init), (18 bytes).
    Removing at32f435_437_tmr.o(i.tmr_output_enable), (10 bytes).
    Removing at32f435_437_tmr.o(i.tmr_overflow_event_disable), (10 bytes).
    Removing at32f435_437_tmr.o(i.tmr_overflow_request_source_set), (10 bytes).
    Removing at32f435_437_tmr.o(i.tmr_period_buffer_enable), (10 bytes).
    Removing at32f435_437_tmr.o(i.tmr_period_value_get), (4 bytes).
    Removing at32f435_437_tmr.o(i.tmr_period_value_set), (4 bytes).
    Removing at32f435_437_tmr.o(i.tmr_primary_mode_select), (10 bytes).
    Removing at32f435_437_tmr.o(i.tmr_pwm_input_config), (262 bytes).
    Removing at32f435_437_tmr.o(i.tmr_repetition_counter_set), (10 bytes).
    Removing at32f435_437_tmr.o(i.tmr_sub_mode_select), (10 bytes).
    Removing at32f435_437_tmr.o(i.tmr_sub_sync_mode_set), (10 bytes).
    Removing at32f435_437_tmr.o(i.tmr_trgout2_enable), (10 bytes).
    Removing at32f435_437_tmr.o(i.tmr_trigger_input_select), (10 bytes).
    Removing at32f435_437_usart.o(.rev16_text), (4 bytes).
    Removing at32f435_437_usart.o(.revsh_text), (4 bytes).
    Removing at32f435_437_usart.o(.rrx_text), (6 bytes).
    Removing at32f435_437_usart.o(i.usart_break_bit_num_set), (10 bytes).
    Removing at32f435_437_usart.o(i.usart_break_send), (10 bytes).
    Removing at32f435_437_usart.o(i.usart_clock_config), (28 bytes).
    Removing at32f435_437_usart.o(i.usart_clock_enable), (10 bytes).
    Removing at32f435_437_usart.o(i.usart_de_polarity_set), (10 bytes).
    Removing at32f435_437_usart.o(i.usart_dma_receiver_enable), (10 bytes).
    Removing at32f435_437_usart.o(i.usart_dma_transmitter_enable), (10 bytes).
    Removing at32f435_437_usart.o(i.usart_hardware_flow_control_set), (64 bytes).
    Removing at32f435_437_usart.o(i.usart_id_bit_num_set), (10 bytes).
    Removing at32f435_437_usart.o(i.usart_irda_low_power_enable), (10 bytes).
    Removing at32f435_437_usart.o(i.usart_irda_mode_enable), (10 bytes).
    Removing at32f435_437_usart.o(i.usart_irda_smartcard_division_set), (10 bytes).
    Removing at32f435_437_usart.o(i.usart_lin_mode_enable), (10 bytes).
    Removing at32f435_437_usart.o(i.usart_parity_selection_config), (52 bytes).
    Removing at32f435_437_usart.o(i.usart_receiver_mute_enable), (10 bytes).
    Removing at32f435_437_usart.o(i.usart_reset), (168 bytes).
    Removing at32f435_437_usart.o(i.usart_rs485_delay_time_config), (18 bytes).
    Removing at32f435_437_usart.o(i.usart_rs485_mode_enable), (10 bytes).
    Removing at32f435_437_usart.o(i.usart_single_line_halfduplex_select), (10 bytes).
    Removing at32f435_437_usart.o(i.usart_smartcard_guard_time_set), (10 bytes).
    Removing at32f435_437_usart.o(i.usart_smartcard_mode_enable), (10 bytes).
    Removing at32f435_437_usart.o(i.usart_smartcard_nack_set), (10 bytes).
    Removing at32f435_437_usart.o(i.usart_wakeup_id_set), (46 bytes).
    Removing at32f435_437_usart.o(i.usart_wakeup_mode_set), (10 bytes).
    Removing at32f435_437_scfg.o(.rev16_text), (4 bytes).
    Removing at32f435_437_scfg.o(.revsh_text), (4 bytes).
    Removing at32f435_437_scfg.o(.rrx_text), (6 bytes).
    Removing at32f435_437_scfg.o(i.scfg_emac_interface_set), (16 bytes).
    Removing at32f435_437_scfg.o(i.scfg_exint_line_config), (68 bytes).
    Removing at32f435_437_scfg.o(i.scfg_infrared_config), (24 bytes).
    Removing at32f435_437_scfg.o(i.scfg_mem_map_set), (16 bytes).
    Removing at32f435_437_scfg.o(i.scfg_pins_ultra_driven_enable), (44 bytes).
    Removing at32f435_437_scfg.o(i.scfg_reset), (28 bytes).
    Removing at32f435_437_scfg.o(i.scfg_xmc_mapping_swap_set), (16 bytes).
    Removing at32f435_437_wwdt.o(.rev16_text), (4 bytes).
    Removing at32f435_437_wwdt.o(.revsh_text), (4 bytes).
    Removing at32f435_437_wwdt.o(.rrx_text), (6 bytes).
    Removing at32f435_437_wwdt.o(i.wwdt_counter_set), (16 bytes).
    Removing at32f435_437_wwdt.o(i.wwdt_divider_set), (16 bytes).
    Removing at32f435_437_wwdt.o(i.wwdt_enable), (16 bytes).
    Removing at32f435_437_wwdt.o(i.wwdt_flag_clear), (12 bytes).
    Removing at32f435_437_wwdt.o(i.wwdt_flag_get), (16 bytes).
    Removing at32f435_437_wwdt.o(i.wwdt_interrupt_enable), (16 bytes).
    Removing at32f435_437_wwdt.o(i.wwdt_interrupt_flag_get), (32 bytes).
    Removing at32f435_437_wwdt.o(i.wwdt_reset), (28 bytes).
    Removing at32f435_437_wwdt.o(i.wwdt_window_counter_set), (16 bytes).
    Removing hal_keyled.o(.rev16_text), (4 bytes).
    Removing hal_keyled.o(.revsh_text), (4 bytes).
    Removing hal_keyled.o(.rrx_text), (6 bytes).
    Removing hal_keyled.o(i.Hal_Exit_Bot_Deinit), (48 bytes).
    Removing hal_keyled.o(i.Hal_Exit_Bot_Init), (52 bytes).
    Removing hal_keyled.o(i.Hal_Exit_Side_Deinit), (52 bytes).
    Removing hal_keyled.o(i.Hal_Exit_Side_Init), (54 bytes).
    Removing hal_keyled.o(i.Hal_Exit_Slide_Deinit), (52 bytes).
    Removing hal_keyled.o(i.Hal_Exit_Slide_Init), (54 bytes).
    Removing hal_keyled.o(i.Hal_Get_BotKey_State), (24 bytes).
    Removing hal_init.o(.rev16_text), (4 bytes).
    Removing hal_init.o(.revsh_text), (4 bytes).
    Removing hal_init.o(.rrx_text), (6 bytes).
    Removing hal_init.o(i.NVIC_Init), (6 bytes).
    Removing hal_powmanage.o(.rev16_text), (4 bytes).
    Removing hal_powmanage.o(.revsh_text), (4 bytes).
    Removing hal_powmanage.o(.rrx_text), (6 bytes).
    Removing hal_uart.o(.rev16_text), (4 bytes).
    Removing hal_uart.o(.revsh_text), (4 bytes).
    Removing hal_uart.o(.rrx_text), (6 bytes).
    Removing hal_uart.o(i.Hal_Uart2_Deinit), (36 bytes).
    Removing hal_uart.o(i._sys_exit), (2 bytes).
    Removing hal_uart.o(i._ttywrch), (2 bytes).
    Removing hal_uart.o(i.uart1_data_send), (32 bytes).
    Removing hal_uart.o(i.uart1_tx_string), (52 bytes).
    Removing hal_uart.o(i.uart2_data_send), (32 bytes).
    Removing hal_uart.o(i.uart3_data_send), (32 bytes).
    Removing hal_uart.o(i.uart4_data_send), (32 bytes).
    Removing hal_sleep.o(.rev16_text), (4 bytes).
    Removing hal_sleep.o(.revsh_text), (4 bytes).
    Removing hal_sleep.o(.rrx_text), (6 bytes).
    Removing hal_sleep.o(i.Hal_Alarm_Deinit), (24 bytes).
    Removing hal_sleep.o(i.Hal_Alarm_Init), (192 bytes).
    Removing hal_sleep.o(i.Hal_Config_Sys_From_Deep_Sleep), (4 bytes).
    Removing hal_sleep.o(i.Hal_Ertc_Alarm_Config), (50 bytes).
    Removing hal_sleep.o(i.Hal_Feed_Dog), (6 bytes).
    Removing hal_sleep.o(i.Hal_Get_Into_Sleep), (152 bytes).
    Removing hal_sleep.o(i.Hal_System_Clock_Recover), (88 bytes).
    Removing hal_sleep.o(i.Hal_Wdt_Deinit), (4 bytes).
    Removing hal_sleep.o(i.Hal_Wdt_Init), (32 bytes).
    Removing hal_sleep.o(i.delay_us), (24 bytes).
    Removing hal_sleep.o(.data), (4 bytes).
    Removing hal_sleep.o(.data), (4 bytes).
    Removing hal_sleep.o(.data), (1 bytes).
    Removing hal_flash.o(.rev16_text), (4 bytes).
    Removing hal_flash.o(.revsh_text), (4 bytes).
    Removing hal_flash.o(.rrx_text), (6 bytes).
    Removing hal_flash.o(i.Hal_Falsh_Erase_More_Page), (48 bytes).
    Removing hal_flash.o(i.Hal_Flash_Init), (4 bytes).
    Removing hal_flash.o(i.Hal_Flash_Read_More_Word), (32 bytes).
    Removing hal_flash.o(i.Hal_Flash_Write_More_Word), (76 bytes).
    Removing hal_flash.o(.data), (4 bytes).
    Removing bsp_keyled.o(.rev16_text), (4 bytes).
    Removing bsp_keyled.o(.revsh_text), (4 bytes).
    Removing bsp_keyled.o(.rrx_text), (6 bytes).
    Removing bsp_keyled.o(i.Bsp_Stop_Bat_Vol_Display), (48 bytes).
    Removing bsp_keyled.o(.data), (2 bytes).
    Removing bsp_keyled.o(.data), (2 bytes).
    Removing bsp_keyled.o(.data), (2 bytes).
    Removing bsp_keyled.o(.data), (1 bytes).
    Removing bsp_keyled.o(.data), (1 bytes).
    Removing bsp_keyled.o(.data), (1 bytes).
    Removing bsp_uartrec.o(.rev16_text), (4 bytes).
    Removing bsp_uartrec.o(.revsh_text), (4 bytes).
    Removing bsp_uartrec.o(.rrx_text), (6 bytes).
    Removing bsp_batvol.o(i.Bps_Stop_Always_Updata_BatVol_Percent), (16 bytes).
    Removing bsp_batvol.o(i.Bsp_Get_BatADValue), (12 bytes).
    Removing bsp_batvol.o(i.Bsp_Get_BatVol), (12 bytes).
    Removing bsp_batvol.o(i.Bsp_Get_SloarADValue), (12 bytes).
    Removing bsp_batvol.o(i.Bsp_Reset_BatPercent), (12 bytes).
    Removing bsp_batvol.o(.data), (2 bytes).
    Removing bsp_rdsssend.o(.rev16_text), (4 bytes).
    Removing bsp_rdsssend.o(.revsh_text), (4 bytes).
    Removing bsp_rdsssend.o(.rrx_text), (6 bytes).
    Removing bsp_rdsssend.o(i.Bsp_Into_Sleep), (22 bytes).
    Removing bsp_config.o(.rev16_text), (4 bytes).
    Removing bsp_config.o(.revsh_text), (4 bytes).
    Removing bsp_config.o(.rrx_text), (6 bytes).
    Removing bsp_config.o(i.Bsp_Get_Uart_Mode), (12 bytes).
    Removing bsp_config.o(i.Bsp_Port_Init), (12 bytes).
    Removing sys_timerun.o(i.SlotBranch1ms), (4 bytes).
    Removing sys_timerun.o(.data), (1 bytes).
    Removing dneg.o(.text), (6 bytes).

412 unused section(s) (total 12187 bytes) removed from the image.

==============================================================================

Image Symbol Table

    Local Symbols

    Symbol Name                              Value     Ov Type        Size  Object(Section)

    ../clib/microlib/ctype/ctype.c           0x00000000   Number         0  isspace_c.o ABSOLUTE
    ../clib/microlib/ctype/ctype.c           0x00000000   Number         0  ctype_c.o ABSOLUTE
    ../clib/microlib/division.c              0x00000000   Number         0  uldiv.o ABSOLUTE
    ../clib/microlib/division.c              0x00000000   Number         0  uidiv.o ABSOLUTE
    ../clib/microlib/errno.c                 0x00000000   Number         0  errno.o ABSOLUTE
    ../clib/microlib/init/entry.s            0x00000000   Number         0  entry8b.o ABSOLUTE
    ../clib/microlib/init/entry.s            0x00000000   Number         0  entry10b.o ABSOLUTE
    ../clib/microlib/init/entry.s            0x00000000   Number         0  entry10a.o ABSOLUTE
    ../clib/microlib/init/entry.s            0x00000000   Number         0  entry.o ABSOLUTE
    ../clib/microlib/init/entry.s            0x00000000   Number         0  entry11a.o ABSOLUTE
    ../clib/microlib/init/entry.s            0x00000000   Number         0  entry9b.o ABSOLUTE
    ../clib/microlib/init/entry.s            0x00000000   Number         0  entry11b.o ABSOLUTE
    ../clib/microlib/init/entry.s            0x00000000   Number         0  entry2.o ABSOLUTE
    ../clib/microlib/init/entry.s            0x00000000   Number         0  entry5.o ABSOLUTE
    ../clib/microlib/init/entry.s            0x00000000   Number         0  entry7a.o ABSOLUTE
    ../clib/microlib/init/entry.s            0x00000000   Number         0  entry9a.o ABSOLUTE
    ../clib/microlib/init/entry.s            0x00000000   Number         0  entry7b.o ABSOLUTE
    ../clib/microlib/init/entry.s            0x00000000   Number         0  entry8a.o ABSOLUTE
    ../clib/microlib/longlong.c              0x00000000   Number         0  llushr.o ABSOLUTE
    ../clib/microlib/longlong.c              0x00000000   Number         0  llshl.o ABSOLUTE
    ../clib/microlib/longlong.c              0x00000000   Number         0  llsshr.o ABSOLUTE
    ../clib/microlib/printf/printf.c         0x00000000   Number         0  printf2.o ABSOLUTE
    ../clib/microlib/printf/printf.c         0x00000000   Number         0  printf1.o ABSOLUTE
    ../clib/microlib/printf/printf.c         0x00000000   Number         0  printf0.o ABSOLUTE
    ../clib/microlib/printf/printf.c         0x00000000   Number         0  printfb.o ABSOLUTE
    ../clib/microlib/printf/printf.c         0x00000000   Number         0  printf3.o ABSOLUTE
    ../clib/microlib/printf/printf.c         0x00000000   Number         0  printf4.o ABSOLUTE
    ../clib/microlib/printf/printf.c         0x00000000   Number         0  printf5.o ABSOLUTE
    ../clib/microlib/printf/printf.c         0x00000000   Number         0  printf6.o ABSOLUTE
    ../clib/microlib/printf/printf.c         0x00000000   Number         0  printf7.o ABSOLUTE
    ../clib/microlib/printf/printf.c         0x00000000   Number         0  printf8.o ABSOLUTE
    ../clib/microlib/printf/printf.c         0x00000000   Number         0  printfa.o ABSOLUTE
    ../clib/microlib/printf/stubs.s          0x00000000   Number         0  stubs.o ABSOLUTE
    ../clib/microlib/string/memcmp.c         0x00000000   Number         0  memcmp.o ABSOLUTE
    ../clib/microlib/string/memcpy.c         0x00000000   Number         0  memcpyb.o ABSOLUTE
    ../clib/microlib/string/memcpy.c         0x00000000   Number         0  memcpya.o ABSOLUTE
    ../clib/microlib/string/memset.c         0x00000000   Number         0  memseta.o ABSOLUTE
    ../clib/microlib/string/strlen.c         0x00000000   Number         0  strlen.o ABSOLUTE
    ../clib/microlib/stubs.s                 0x00000000   Number         0  iusefp.o ABSOLUTE
    ../clib/microlib/stubs.s                 0x00000000   Number         0  useno.o ABSOLUTE
    ../clib/microlib/time/localtime.c        0x00000000   Number         0  localtime_i.o ABSOLUTE
    ../clib/microlib/time/localtime.c        0x00000000   Number         0  localtime_w.o ABSOLUTE
    ../clib/microlib/time/mktime.c           0x00000000   Number         0  mktime.o ABSOLUTE
    ../clib/scanf.c                          0x00000000   Number         0  _sgetc.o ABSOLUTE
    ../clib/scanf.c                          0x00000000   Number         0  _chval.o ABSOLUTE
    ../clib/scanf.c                          0x00000000   Number         0  _scanf.o ABSOLUTE
    ../clib/scanf.c                          0x00000000   Number         0  __0sscanf.o ABSOLUTE
    ../clib/scanf.c                          0x00000000   Number         0  strtod.o ABSOLUTE
    ../clib/scanf.c                          0x00000000   Number         0  scanf_char.o ABSOLUTE
    ../clib/scanf.c                          0x00000000   Number         0  _scanf_int.o ABSOLUTE
    ../clib/scanf.c                          0x00000000   Number         0  scanf_fp.o ABSOLUTE
    ../fplib/microlib/d2f.c                  0x00000000   Number         0  d2f.o ABSOLUTE
    ../fplib/microlib/f2d.c                  0x00000000   Number         0  f2d.o ABSOLUTE
    ../fplib/microlib/fpadd.c                0x00000000   Number         0  dadd.o ABSOLUTE
    ../fplib/microlib/fpdiv.c                0x00000000   Number         0  ddiv.o ABSOLUTE
    ../fplib/microlib/fpepilogue.c           0x00000000   Number         0  fepilogue.o ABSOLUTE
    ../fplib/microlib/fpepilogue.c           0x00000000   Number         0  depilogue.o ABSOLUTE
    ../fplib/microlib/fpfix.c                0x00000000   Number         0  dfixui.o ABSOLUTE
    ../fplib/microlib/fpfix.c                0x00000000   Number         0  dfixul.o ABSOLUTE
    ../fplib/microlib/fpfix.c                0x00000000   Number         0  dfixi.o ABSOLUTE
    ../fplib/microlib/fpflt.c                0x00000000   Number         0  dfltui.o ABSOLUTE
    ../fplib/microlib/fpflt.c                0x00000000   Number         0  dfltul.o ABSOLUTE
    ../fplib/microlib/fpflt.c                0x00000000   Number         0  dflti.o ABSOLUTE
    ../fplib/microlib/fpmul.c                0x00000000   Number         0  dmul.o ABSOLUTE
    ../fplib/microlib/fpneg.c                0x00000000   Number         0  dneg.o ABSOLUTE
    ../fplib/microlib/fpsqrt.c               0x00000000   Number         0  dsqrt.o ABSOLUTE
    ../mathlib/asin.c                        0x00000000   Number         0  asin_x.o ABSOLUTE
    ../mathlib/asin.c                        0x00000000   Number         0  asin.o ABSOLUTE
    ../mathlib/atof.c                        0x00000000   Number         0  atof.o ABSOLUTE
    ../mathlib/cos.c                         0x00000000   Number         0  cos_x.o ABSOLUTE
    ../mathlib/cos.c                         0x00000000   Number         0  cos.o ABSOLUTE
    ../mathlib/cos_i.c                       0x00000000   Number         0  cos_i.o ABSOLUTE
    ../mathlib/dunder.c                      0x00000000   Number         0  dunder.o ABSOLUTE
    ../mathlib/fabs.c                        0x00000000   Number         0  fabs.o ABSOLUTE
    ../mathlib/fpclassify.c                  0x00000000   Number         0  fpclassify.o ABSOLUTE
    ../mathlib/poly.c                        0x00000000   Number         0  poly.o ABSOLUTE
    ../mathlib/rred.c                        0x00000000   Number         0  rred.o ABSOLUTE
    ../mathlib/sin_i.c                       0x00000000   Number         0  sin_i_x.o ABSOLUTE
    ../mathlib/sin_i.c                       0x00000000   Number         0  sin_i.o ABSOLUTE
    ../mathlib/sqrt.c                        0x00000000   Number         0  sqrt_x.o ABSOLUTE
    ../mathlib/sqrt.c                        0x00000000   Number         0  sqrt.o ABSOLUTE
    ..\API\src\api_common.c                  0x00000000   Number         0  api_common.o ABSOLUTE
    ..\API\src\api_fifo.c                    0x00000000   Number         0  api_fifo.o ABSOLUTE
    ..\APP\Sys_TimeRun.c                     0x00000000   Number         0  sys_timerun.o ABSOLUTE
    ..\APP\main.c                            0x00000000   Number         0  main.o ABSOLUTE
    ..\BSP\src\Bsp_BatVol.c                  0x00000000   Number         0  bsp_batvol.o ABSOLUTE
    ..\BSP\src\Bsp_Config.c                  0x00000000   Number         0  bsp_config.o ABSOLUTE
    ..\BSP\src\Bsp_GnssParse.c               0x00000000   Number         0  bsp_gnssparse.o ABSOLUTE
    ..\BSP\src\Bsp_Init.c                    0x00000000   Number         0  bsp_init.o ABSOLUTE
    ..\BSP\src\Bsp_KeyLed.c                  0x00000000   Number         0  bsp_keyled.o ABSOLUTE
    ..\BSP\src\Bsp_Log.c                     0x00000000   Number         0  bsp_log.o ABSOLUTE
    ..\BSP\src\Bsp_RdssParse.c               0x00000000   Number         0  bsp_rdssparse.o ABSOLUTE
    ..\BSP\src\Bsp_RdssSend.c                0x00000000   Number         0  bsp_rdsssend.o ABSOLUTE
    ..\BSP\src\Bsp_UartRec.c                 0x00000000   Number         0  bsp_uartrec.o ABSOLUTE
    ..\Core\device_support\startup\mdk\startup_at32f435_437.s 0x00000000   Number         0  startup_at32f435_437.o ABSOLUTE
    ..\Core\device_support\system_at32f435_437.c 0x00000000   Number         0  system_at32f435_437.o ABSOLUTE
    ..\Driver\src\at32f435_437_adc.c         0x00000000   Number         0  at32f435_437_adc.o ABSOLUTE
    ..\Driver\src\at32f435_437_crm.c         0x00000000   Number         0  at32f435_437_crm.o ABSOLUTE
    ..\Driver\src\at32f435_437_dma.c         0x00000000   Number         0  at32f435_437_dma.o ABSOLUTE
    ..\Driver\src\at32f435_437_ertc.c        0x00000000   Number         0  at32f435_437_ertc.o ABSOLUTE
    ..\Driver\src\at32f435_437_exint.c       0x00000000   Number         0  at32f435_437_exint.o ABSOLUTE
    ..\Driver\src\at32f435_437_flash.c       0x00000000   Number         0  at32f435_437_flash.o ABSOLUTE
    ..\Driver\src\at32f435_437_gpio.c        0x00000000   Number         0  at32f435_437_gpio.o ABSOLUTE
    ..\Driver\src\at32f435_437_misc.c        0x00000000   Number         0  at32f435_437_misc.o ABSOLUTE
    ..\Driver\src\at32f435_437_pwc.c         0x00000000   Number         0  at32f435_437_pwc.o ABSOLUTE
    ..\Driver\src\at32f435_437_scfg.c        0x00000000   Number         0  at32f435_437_scfg.o ABSOLUTE
    ..\Driver\src\at32f435_437_tmr.c         0x00000000   Number         0  at32f435_437_tmr.o ABSOLUTE
    ..\Driver\src\at32f435_437_usart.c       0x00000000   Number         0  at32f435_437_usart.o ABSOLUTE
    ..\Driver\src\at32f435_437_wwdt.c        0x00000000   Number         0  at32f435_437_wwdt.o ABSOLUTE
    ..\Hal\src\Hal_Flash.c                   0x00000000   Number         0  hal_flash.o ABSOLUTE
    ..\Hal\src\Hal_Init.c                    0x00000000   Number         0  hal_init.o ABSOLUTE
    ..\Hal\src\Hal_KeyLed.c                  0x00000000   Number         0  hal_keyled.o ABSOLUTE
    ..\Hal\src\Hal_PowManage.c               0x00000000   Number         0  hal_powmanage.o ABSOLUTE
    ..\Hal\src\Hal_Sleep.c                   0x00000000   Number         0  hal_sleep.o ABSOLUTE
    ..\Hal\src\Hal_Uart.c                    0x00000000   Number         0  hal_uart.o ABSOLUTE
    ..\\BSP\\src\\Bsp_Config.c               0x00000000   Number         0  bsp_config.o ABSOLUTE
    ..\\BSP\\src\\Bsp_KeyLed.c               0x00000000   Number         0  bsp_keyled.o ABSOLUTE
    ..\\BSP\\src\\Bsp_RdssSend.c             0x00000000   Number         0  bsp_rdsssend.o ABSOLUTE
    ..\\BSP\\src\\Bsp_UartRec.c              0x00000000   Number         0  bsp_uartrec.o ABSOLUTE
    ..\\Core\\device_support\\system_at32f435_437.c 0x00000000   Number         0  system_at32f435_437.o ABSOLUTE
    ..\\Driver\\src\\at32f435_437_adc.c      0x00000000   Number         0  at32f435_437_adc.o ABSOLUTE
    ..\\Driver\\src\\at32f435_437_crm.c      0x00000000   Number         0  at32f435_437_crm.o ABSOLUTE
    ..\\Driver\\src\\at32f435_437_dma.c      0x00000000   Number         0  at32f435_437_dma.o ABSOLUTE
    ..\\Driver\\src\\at32f435_437_ertc.c     0x00000000   Number         0  at32f435_437_ertc.o ABSOLUTE
    ..\\Driver\\src\\at32f435_437_exint.c    0x00000000   Number         0  at32f435_437_exint.o ABSOLUTE
    ..\\Driver\\src\\at32f435_437_flash.c    0x00000000   Number         0  at32f435_437_flash.o ABSOLUTE
    ..\\Driver\\src\\at32f435_437_gpio.c     0x00000000   Number         0  at32f435_437_gpio.o ABSOLUTE
    ..\\Driver\\src\\at32f435_437_misc.c     0x00000000   Number         0  at32f435_437_misc.o ABSOLUTE
    ..\\Driver\\src\\at32f435_437_pwc.c      0x00000000   Number         0  at32f435_437_pwc.o ABSOLUTE
    ..\\Driver\\src\\at32f435_437_scfg.c     0x00000000   Number         0  at32f435_437_scfg.o ABSOLUTE
    ..\\Driver\\src\\at32f435_437_tmr.c      0x00000000   Number         0  at32f435_437_tmr.o ABSOLUTE
    ..\\Driver\\src\\at32f435_437_usart.c    0x00000000   Number         0  at32f435_437_usart.o ABSOLUTE
    ..\\Driver\\src\\at32f435_437_wwdt.c     0x00000000   Number         0  at32f435_437_wwdt.o ABSOLUTE
    ..\\Hal\\src\\Hal_Flash.c                0x00000000   Number         0  hal_flash.o ABSOLUTE
    ..\\Hal\\src\\Hal_Init.c                 0x00000000   Number         0  hal_init.o ABSOLUTE
    ..\\Hal\\src\\Hal_KeyLed.c               0x00000000   Number         0  hal_keyled.o ABSOLUTE
    ..\\Hal\\src\\Hal_PowManage.c            0x00000000   Number         0  hal_powmanage.o ABSOLUTE
    ..\\Hal\\src\\Hal_Sleep.c                0x00000000   Number         0  hal_sleep.o ABSOLUTE
    ..\\Hal\\src\\Hal_Uart.c                 0x00000000   Number         0  hal_uart.o ABSOLUTE
    cdcmple.s                                0x00000000   Number         0  cdcmple.o ABSOLUTE
    cdrcmple.s                               0x00000000   Number         0  cdrcmple.o ABSOLUTE
    dc.s                                     0x00000000   Number         0  dc.o ABSOLUTE
    handlers.s                               0x00000000   Number         0  handlers.o ABSOLUTE
    init.s                                   0x00000000   Number         0  init.o ABSOLUTE
    RESET                                    0x08004000   Section      524  startup_at32f435_437.o(RESET)
    .ARM.Collect$$$$00000000                 0x0800420c   Section        0  entry.o(.ARM.Collect$$$$00000000)
    .ARM.Collect$$$$00000001                 0x0800420c   Section        4  entry2.o(.ARM.Collect$$$$00000001)
    .ARM.Collect$$$$00000004                 0x08004210   Section        4  entry5.o(.ARM.Collect$$$$00000004)
    .ARM.Collect$$$$00000008                 0x08004214   Section        0  entry7b.o(.ARM.Collect$$$$00000008)
    .ARM.Collect$$$$0000000A                 0x08004214   Section        0  entry8b.o(.ARM.Collect$$$$0000000A)
    .ARM.Collect$$$$0000000B                 0x08004214   Section        8  entry9a.o(.ARM.Collect$$$$0000000B)
    .ARM.Collect$$$$0000000D                 0x0800421c   Section        0  entry10a.o(.ARM.Collect$$$$0000000D)
    .ARM.Collect$$$$0000000F                 0x0800421c   Section        0  entry11a.o(.ARM.Collect$$$$0000000F)
    .ARM.Collect$$$$00002712                 0x0800421c   Section        4  entry2.o(.ARM.Collect$$$$00002712)
    __lit__00000000                          0x0800421c   Data           4  entry2.o(.ARM.Collect$$$$00002712)
    .text                                    0x08004220   Section       36  startup_at32f435_437.o(.text)
    $v0                                      0x08004220   Number         0  startup_at32f435_437.o(.text)
    .text                                    0x08004244   Section        0  uldiv.o(.text)
    .text                                    0x080042a8   Section        0  mktime.o(.text)
    .text                                    0x08004350   Section        0  memcpya.o(.text)
    .text                                    0x08004374   Section        0  memseta.o(.text)
    .text                                    0x08004398   Section        0  strlen.o(.text)
    .text                                    0x080043a6   Section        0  memcmp.o(.text)
    .text                                    0x080043c0   Section        0  __0sscanf.o(.text)
    .text                                    0x080043f8   Section        0  _scanf_int.o(.text)
    .text                                    0x08004544   Section        0  dadd.o(.text)
    .text                                    0x08004692   Section        0  dmul.o(.text)
    .text                                    0x08004776   Section        0  ddiv.o(.text)
    .text                                    0x08004854   Section        0  dfltui.o(.text)
    .text                                    0x0800486e   Section        0  dfixui.o(.text)
    .text                                    0x080048a0   Section        0  f2d.o(.text)
    .text                                    0x080048c8   Section       48  cdcmple.o(.text)
    .text                                    0x080048f8   Section       48  cdrcmple.o(.text)
    .text                                    0x08004928   Section        0  d2f.o(.text)
    .text                                    0x08004960   Section        0  uidiv.o(.text)
    .text                                    0x0800498c   Section        0  llshl.o(.text)
    .text                                    0x080049aa   Section        0  llushr.o(.text)
    .text                                    0x080049ca   Section        0  llsshr.o(.text)
    .text                                    0x080049f0   Section        0  localtime_i.o(.text)
    .text                                    0x08004a7c   Section        0  _chval.o(.text)
    .text                                    0x08004a98   Section        0  scanf_char.o(.text)
    _scanf_char_input                        0x08004a99   Thumb Code    12  scanf_char.o(.text)
    .text                                    0x08004ac0   Section        0  _sgetc.o(.text)
    .text                                    0x08004b00   Section        0  strtod.o(.text)
    _local_sscanf                            0x08004b01   Thumb Code    54  strtod.o(.text)
    .text                                    0x08004b9c   Section        0  fepilogue.o(.text)
    .text                                    0x08004b9c   Section        0  iusefp.o(.text)
    .text                                    0x08004c0a   Section        0  depilogue.o(.text)
    .text                                    0x08004cc4   Section        0  dsqrt.o(.text)
    .text                                    0x08004d66   Section        0  dfixul.o(.text)
    .text                                    0x08004d98   Section       36  init.o(.text)
    .text                                    0x08004dbc   Section        0  isspace_c.o(.text)
    .text                                    0x08004dc8   Section        0  _scanf.o(.text)
    .text                                    0x080050f4   Section        0  scanf_fp.o(.text)
    _fp_value                                0x080050f5   Thumb Code   296  scanf_fp.o(.text)
    .text                                    0x08005454   Section        0  dflti.o(.text)
    .text                                    0x08005476   Section        0  dfixi.o(.text)
    .text                                    0x080054b4   Section        0  ctype_c.o(.text)
    .text                                    0x080054dc   Section        0  dfltul.o(.text)
    i.ADConvert                              0x080054f4   Section        0  bsp_batvol.o(i.ADConvert)
    i.API_Check_Xor                          0x08005560   Section        0  bsp_rdsssend.o(i.API_Check_Xor)
    i.API_Funftoa                            0x08005578   Section        0  bsp_rdsssend.o(i.API_Funftoa)
    i.API_Hex8_To_String                     0x080056a0   Section        0  bsp_rdsssend.o(i.API_Hex8_To_String)
    i.Api_Acc_Speed                          0x080056cc   Section        0  bsp_gnssparse.o(i.Api_Acc_Speed)
    i.Api_Loca_Distance                      0x080056d4   Section        0  bsp_gnssparse.o(i.Api_Loca_Distance)
    i.Api_Location_Data_Turn                 0x08005810   Section        0  bsp_gnssparse.o(i.Api_Location_Data_Turn)
    i.Arithmetic_Average                     0x08005890   Section        0  bsp_batvol.o(i.Arithmetic_Average)
    i.Bps_Start_Always_Updata_BatVol_Percent 0x080058c4   Section        0  bsp_batvol.o(i.Bps_Start_Always_Updata_BatVol_Percent)
    i.Bps_Start_Once_Time_Updata_BatVol_Percent 0x080058d4   Section        0  bsp_batvol.o(i.Bps_Start_Once_Time_Updata_BatVol_Percent)
    i.Bsp_Add_Loca_Queue                     0x080058e8   Section        0  bsp_rdsssend.o(i.Bsp_Add_Loca_Queue)
    i.Bsp_BDS_Data_Send                      0x08005f10   Section        0  bsp_rdsssend.o(i.Bsp_BDS_Data_Send)
    i.Bsp_Bat_Vol_Display                    0x08005f5c   Section        0  bsp_keyled.o(i.Bsp_Bat_Vol_Display)
    i.Bsp_Error_Led_Display                  0x08005fc4   Section        0  bsp_keyled.o(i.Bsp_Error_Led_Display)
    i.Bsp_Float_to_Buf                       0x08005fe0   Section        0  bsp_rdsssend.o(i.Bsp_Float_to_Buf)
    i.Bsp_GNSS_Data_Deal                     0x08005ff4   Section        0  bsp_gnssparse.o(i.Bsp_GNSS_Data_Deal)
    i.Bsp_GNSS_Data_Parse_String             0x08006210   Section        0  bsp_gnssparse.o(i.Bsp_GNSS_Data_Parse_String)
    i.Bsp_GNSS_Init                          0x080062b0   Section        0  bsp_gnssparse.o(i.Bsp_GNSS_Init)
    i.Bsp_GNSS_Parse_Init                    0x080062c0   Section        0  bsp_gnssparse.o(i.Bsp_GNSS_Parse_Init)
    i.Bsp_GNSS_Split_Data_Init               0x080062e8   Section        0  bsp_gnssparse.o(i.Bsp_GNSS_Split_Data_Init)
    i.Bsp_Get_BatPercent                     0x08006324   Section        0  bsp_batvol.o(i.Bsp_Get_BatPercent)
    i.Bsp_Get_CardID                         0x08006330   Section        0  bsp_config.o(i.Bsp_Get_CardID)
    i.Bsp_Get_Location                       0x08006344   Section        0  bsp_gnssparse.o(i.Bsp_Get_Location)
    i.Bsp_Get_Pow_State                      0x08006484   Section        0  bsp_keyled.o(i.Bsp_Get_Pow_State)
    i.Bsp_Get_SloarVol                       0x08006490   Section        0  bsp_batvol.o(i.Bsp_Get_SloarVol)
    i.Bsp_Get_SloarVolFloat                  0x080064bc   Section        0  bsp_batvol.o(i.Bsp_Get_SloarVolFloat)
    i.Bsp_Get_Sys_State                      0x080064e8   Section        0  bsp_keyled.o(i.Bsp_Get_Sys_State)
    i.Bsp_Get_Temp                           0x080064f4   Section        0  bsp_batvol.o(i.Bsp_Get_Temp)
    i.Bsp_Get_Updata_Bat_Voltage_Once_State  0x0800656c   Section        0  bsp_batvol.o(i.Bsp_Get_Updata_Bat_Voltage_Once_State)
    i.Bsp_Gnss_Data_Check                    0x08006578   Section        0  bsp_gnssparse.o(i.Bsp_Gnss_Data_Check)
    i.Bsp_Gnss_Loca_If_Vaild                 0x080065e0   Section        0  bsp_gnssparse.o(i.Bsp_Gnss_Loca_If_Vaild)
    i.Bsp_Gnss_Parse_Byte                    0x080065fc   Section        0  bsp_gnssparse.o(i.Bsp_Gnss_Parse_Byte)
    i.Bsp_Gnss_RMC_Data_Split                0x08006648   Section        0  bsp_gnssparse.o(i.Bsp_Gnss_RMC_Data_Split)
    i.Bsp_MagKey_Scan                        0x080067bc   Section        0  bsp_keyled.o(i.Bsp_MagKey_Scan)
    i.Bsp_Nor_SOS_SendCtrl                   0x0800682c   Section        0  bsp_rdsssend.o(i.Bsp_Nor_SOS_SendCtrl)
    i.Bsp_Port_InforGet_Ctrl                 0x08006b0c   Section        0  bsp_config.o(i.Bsp_Port_InforGet_Ctrl)
    i.Bsp_Port_Parse_Byte                    0x08006bbc   Section        0  bsp_config.o(i.Bsp_Port_Parse_Byte)
    i.Bsp_Pull_SendCtrl                      0x08006c28   Section        0  bsp_rdsssend.o(i.Bsp_Pull_SendCtrl)
    i.Bsp_RDSS_Data_Parse_String             0x08006e7c   Section        0  bsp_rdssparse.o(i.Bsp_RDSS_Data_Parse_String)
    i.Bsp_RDSS_Init                          0x08006f64   Section        0  bsp_rdssparse.o(i.Bsp_RDSS_Init)
    i.Bsp_RDSS_Parse_Init                    0x08006f74   Section        0  bsp_rdssparse.o(i.Bsp_RDSS_Parse_Init)
    i.Bsp_RDSS_Split_Data_Init               0x08006f9c   Section        0  bsp_rdssparse.o(i.Bsp_RDSS_Split_Data_Init)
    i.Bsp_Rdss_Data_Check                    0x08006fa8   Section        0  bsp_rdssparse.o(i.Bsp_Rdss_Data_Check)
    i.Bsp_Rdss_ICP_Data_Split                0x08007010   Section        0  bsp_rdssparse.o(i.Bsp_Rdss_ICP_Data_Split)
    i.Bsp_Rdss_PWI_Data_Split                0x080070d4   Section        0  bsp_rdssparse.o(i.Bsp_Rdss_PWI_Data_Split)
    i.Bsp_Rdss_Parse_Byte                    0x08007268   Section        0  bsp_rdssparse.o(i.Bsp_Rdss_Parse_Byte)
    i.Bsp_Rdss_Signal_Is_Ok                  0x080072b4   Section        0  bsp_rdssparse.o(i.Bsp_Rdss_Signal_Is_Ok)
    i.Bsp_Rdss_Signal_Valid                  0x080072c8   Section        0  bsp_rdssparse.o(i.Bsp_Rdss_Signal_Valid)
    i.Bsp_Rdss_Tx_CCICR                      0x08007318   Section        0  bsp_rdsssend.o(i.Bsp_Rdss_Tx_CCICR)
    i.Bsp_Rdss_Tx_CCTCQ                      0x08007348   Section        0  bsp_rdsssend.o(i.Bsp_Rdss_Tx_CCTCQ)
    i.Bsp_Read_ID                            0x080074d4   Section        0  bsp_config.o(i.Bsp_Read_ID)
    i.Bsp_Receive_Uart1_Fifo_Data            0x080074e0   Section        0  bsp_uartrec.o(i.Bsp_Receive_Uart1_Fifo_Data)
    i.Bsp_Receive_Uart2_Fifo_Data            0x08007504   Section        0  bsp_uartrec.o(i.Bsp_Receive_Uart2_Fifo_Data)
    i.Bsp_Receive_Uart3_Fifo_Data            0x08007520   Section        0  bsp_uartrec.o(i.Bsp_Receive_Uart3_Fifo_Data)
    i.Bsp_Receive_Uart4_Fifo_Data            0x08007544   Section        0  bsp_uartrec.o(i.Bsp_Receive_Uart4_Fifo_Data)
    i.Bsp_Send_Get_CardID                    0x08007568   Section        0  bsp_rdsssend.o(i.Bsp_Send_Get_CardID)
    i.Bsp_Start_Move_Mode                    0x08007584   Section        0  bsp_rdsssend.o(i.Bsp_Start_Move_Mode)
    i.Bsp_Start_Normal_Mode                  0x080075c4   Section        0  bsp_rdsssend.o(i.Bsp_Start_Normal_Mode)
    i.Bsp_Start_PULL_Mode                    0x08007604   Section        0  bsp_rdsssend.o(i.Bsp_Start_PULL_Mode)
    i.Bsp_Start_SOS_Mode                     0x08007644   Section        0  bsp_rdsssend.o(i.Bsp_Start_SOS_Mode)
    i.Bsp_Sys_State_Ctrl                     0x08007684   Section        0  bsp_keyled.o(i.Bsp_Sys_State_Ctrl)
    i.Bsp_Uart_Fifo_Init                     0x08007780   Section        0  bsp_uartrec.o(i.Bsp_Uart_Fifo_Init)
    i.Bsp_Updata_Bat_Percent                 0x080077d4   Section        0  bsp_batvol.o(i.Bsp_Updata_Bat_Percent)
    i.Bsp_Vbat_Chag_Ctrl                     0x08007874   Section        0  bsp_keyled.o(i.Bsp_Vbat_Chag_Ctrl)
    i.Bsp_Write_Boot_Flag                    0x0800796c   Section        0  bsp_config.o(i.Bsp_Write_Boot_Flag)
    i.Bsp_Write_ID                           0x0800797c   Section        0  bsp_config.o(i.Bsp_Write_ID)
    i.ERTCAlarm_IRQHandler                   0x08007988   Section        0  hal_sleep.o(i.ERTCAlarm_IRQHandler)
    i.EXINT0_IRQHandler                      0x080079aa   Section        0  hal_keyled.o(i.EXINT0_IRQHandler)
    i.EXINT1_IRQHandler                      0x080079c2   Section        0  hal_keyled.o(i.EXINT1_IRQHandler)
    i.EXINT9_5_IRQHandler                    0x080079da   Section        0  hal_keyled.o(i.EXINT9_5_IRQHandler)
    i.Fun_Bsp_Init                           0x080079f2   Section        0  bsp_init.o(i.Fun_Bsp_Init)
    i.Fundtoa                                0x080079f8   Section        0  api_common.o(i.Fundtoa)
    i.Gnss_Check_Xor                         0x08007a20   Section        0  bsp_gnssparse.o(i.Gnss_Check_Xor)
    i.Hal_ADC_Deinit                         0x08007a38   Section        0  hal_powmanage.o(i.Hal_ADC_Deinit)
    i.Hal_BatVol_Init                        0x08007a58   Section        0  hal_powmanage.o(i.Hal_BatVol_Init)
    i.Hal_Bat_Led_Display_Enable             0x08007b38   Section        0  hal_keyled.o(i.Hal_Bat_Led_Display_Enable)
    i.Hal_Bat_Led_Heartbeat                  0x08007b80   Section        0  hal_keyled.o(i.Hal_Bat_Led_Heartbeat)
    i.Hal_Charge_Init                        0x08007ba4   Section        0  hal_powmanage.o(i.Hal_Charge_Init)
    i.Hal_Error_Led_Display_Enable           0x08007c04   Section        0  hal_keyled.o(i.Hal_Error_Led_Display_Enable)
    i.Hal_Falsh_Jump                         0x08007c40   Section        0  hal_flash.o(i.Hal_Falsh_Jump)
    i.Hal_Flash_Read_Word                    0x08007ce8   Section        0  hal_flash.o(i.Hal_Flash_Read_Word)
    i.Hal_Flash_Write_Word                   0x08007cec   Section        0  hal_flash.o(i.Hal_Flash_Write_Word)
    i.Hal_Get_ADC1_Value                     0x08007d08   Section        0  hal_powmanage.o(i.Hal_Get_ADC1_Value)
    i.Hal_Get_ADC2_Value                     0x08007d14   Section        0  hal_powmanage.o(i.Hal_Get_ADC2_Value)
    i.Hal_Get_ChagFull_State                 0x08007d20   Section        0  hal_powmanage.o(i.Hal_Get_ChagFull_State)
    i.Hal_Get_MagKey_State                   0x08007d3c   Section        0  hal_keyled.o(i.Hal_Get_MagKey_State)
    i.Hal_Get_SideKey_State                  0x08007d58   Section        0  hal_keyled.o(i.Hal_Get_SideKey_State)
    i.Hal_Get_SlideKey_State                 0x08007d70   Section        0  hal_keyled.o(i.Hal_Get_SlideKey_State)
    i.Hal_Get_USB_In_State                   0x08007d88   Section        0  hal_powmanage.o(i.Hal_Get_USB_In_State)
    i.Hal_Key_Init                           0x08007da4   Section        0  hal_keyled.o(i.Hal_Key_Init)
    i.Hal_Led_Init                           0x08007df8   Section        0  hal_keyled.o(i.Hal_Led_Init)
    i.Hal_Pow_Switch_Init                    0x08007e98   Section        0  hal_powmanage.o(i.Hal_Pow_Switch_Init)
    i.Hal_RTC_init                           0x08007f30   Section        0  hal_sleep.o(i.Hal_RTC_init)
    i.Hal_Start_VBat_ADC_Convert             0x08007fb0   Section        0  hal_powmanage.o(i.Hal_Start_VBat_ADC_Convert)
    i.Hal_Start_VSloar_ADC_Convert           0x08007fd0   Section        0  hal_powmanage.o(i.Hal_Start_VSloar_ADC_Convert)
    i.Hal_System_Clock_Init                  0x08007ff0   Section        0  hal_init.o(i.Hal_System_Clock_Init)
    i.Hal_Uart1_Deinit                       0x080080f4   Section        0  hal_uart.o(i.Hal_Uart1_Deinit)
    i.Hal_Uart1_Init                         0x08008118   Section        0  hal_uart.o(i.Hal_Uart1_Init)
    i.Hal_Uart2_Init                         0x080081bc   Section        0  hal_uart.o(i.Hal_Uart2_Init)
    i.Hal_Uart3_Deinit                       0x08008260   Section        0  hal_uart.o(i.Hal_Uart3_Deinit)
    i.Hal_Uart3_Init                         0x08008284   Section        0  hal_uart.o(i.Hal_Uart3_Init)
    i.Hal_Uart4_Deinit                       0x08008330   Section        0  hal_uart.o(i.Hal_Uart4_Deinit)
    i.Hal_Uart4_Init                         0x08008354   Section        0  hal_uart.o(i.Hal_Uart4_Init)
    i.Heartbeat_BAT1_Led                     0x080083f8   Section        0  hal_keyled.o(i.Heartbeat_BAT1_Led)
    i.Heartbeat_BAT2_Led                     0x08008420   Section        0  hal_keyled.o(i.Heartbeat_BAT2_Led)
    i.Heartbeat_BAT3_Led                     0x08008448   Section        0  hal_keyled.o(i.Heartbeat_BAT3_Led)
    i.Heartbeat_BAT4_Led                     0x08008470   Section        0  hal_keyled.o(i.Heartbeat_BAT4_Led)
    i.Key_Start_Move_Mode                    0x08008494   Section        0  bsp_keyled.o(i.Key_Start_Move_Mode)
    i.Key_Start_Normal_Mode                  0x080084c4   Section        0  bsp_keyled.o(i.Key_Start_Normal_Mode)
    i.Key_Start_PULL_Mode                    0x080084f4   Section        0  bsp_keyled.o(i.Key_Start_PULL_Mode)
    i.Key_Start_SOS_Mode                     0x08008524   Section        0  bsp_keyled.o(i.Key_Start_SOS_Mode)
    i.Log_str_printf                         0x08008550   Section        0  bsp_log.o(i.Log_str_printf)
    i.Mcu_Hal_Init                           0x08008564   Section        0  hal_init.o(i.Mcu_Hal_Init)
    i.Port_Checksum                          0x080085a0   Section        0  bsp_config.o(i.Port_Checksum)
    i.Port_Rxdata_deal                       0x080085bc   Section        0  bsp_config.o(i.Port_Rxdata_deal)
    i.Port_Tx_Cmd_Pack                       0x08008648   Section        0  bsp_config.o(i.Port_Tx_Cmd_Pack)
    i.RTC_Fre_Calib                          0x08008694   Section        0  hal_sleep.o(i.RTC_Fre_Calib)
    i.RTC_Printf                             0x080086b8   Section        0  hal_sleep.o(i.RTC_Printf)
    i.Rdss_Check_Xor                         0x080086f4   Section        0  bsp_rdssparse.o(i.Rdss_Check_Xor)
    i.SlotBranch100ms                        0x0800870c   Section        0  sys_timerun.o(i.SlotBranch100ms)
    i.SlotBranch10ms                         0x08008740   Section        0  sys_timerun.o(i.SlotBranch10ms)
    i.SlotBranch1s                           0x08008784   Section        0  sys_timerun.o(i.SlotBranch1s)
    i.SysTick_Handler                        0x08008810   Section        0  sys_timerun.o(i.SysTick_Handler)
    i.Sys_Start_Charge_Mode                  0x08008824   Section        0  bsp_keyled.o(i.Sys_Start_Charge_Mode)
    i.Sys_Stop_Charge_Mode                   0x08008860   Section        0  bsp_keyled.o(i.Sys_Stop_Charge_Mode)
    i.SystemInit                             0x08008890   Section        0  system_at32f435_437.o(i.SystemInit)
    i.TMR5_GLOBAL_IRQHandler                 0x080088fc   Section        0  hal_sleep.o(i.TMR5_GLOBAL_IRQHandler)
    i.TimeTurn                               0x08008950   Section        0  api_common.o(i.TimeTurn)
    i.Time_Routime                           0x080089c0   Section        0  sys_timerun.o(i.Time_Routime)
    i.UART4_IRQHandler                       0x080089d8   Section        0  bsp_uartrec.o(i.UART4_IRQHandler)
    i.USART1_IRQHandler                      0x08008a20   Section        0  bsp_uartrec.o(i.USART1_IRQHandler)
    i.USART2_IRQHandler                      0x08008a68   Section        0  bsp_uartrec.o(i.USART2_IRQHandler)
    i.USART3_IRQHandler                      0x08008ab0   Section        0  bsp_uartrec.o(i.USART3_IRQHandler)
    i.__0printf                              0x08008af8   Section        0  printfa.o(i.__0printf)
    i.__0sprintf                             0x08008b18   Section        0  printfa.o(i.__0sprintf)
    i.__ARM_fpclassify                       0x08008b40   Section        0  fpclassify.o(i.__ARM_fpclassify)
    i.__hardfp_asin                          0x08008b70   Section        0  asin.o(i.__hardfp_asin)
    i.__hardfp_atof                          0x08008ed0   Section        0  atof.o(i.__hardfp_atof)
    i.__hardfp_cos                           0x08008f08   Section        0  cos.o(i.__hardfp_cos)
    i.__hardfp_sqrt                          0x08008fd0   Section        0  sqrt.o(i.__hardfp_sqrt)
    i.__ieee754_rem_pio2                     0x08009050   Section        0  rred.o(i.__ieee754_rem_pio2)
    i.__kernel_cos                           0x08009488   Section        0  cos_i.o(i.__kernel_cos)
    i.__kernel_poly                          0x080095f8   Section        0  poly.o(i.__kernel_poly)
    i.__kernel_sin                           0x080096f0   Section        0  sin_i.o(i.__kernel_sin)
    i.__mathlib_dbl_infnan                   0x08009820   Section        0  dunder.o(i.__mathlib_dbl_infnan)
    i.__mathlib_dbl_invalid                  0x08009838   Section        0  dunder.o(i.__mathlib_dbl_invalid)
    i.__mathlib_dbl_underflow                0x08009858   Section        0  dunder.o(i.__mathlib_dbl_underflow)
    i.__read_errno                           0x08009878   Section        0  errno.o(i.__read_errno)
    i.__scatterload_copy                     0x08009884   Section       14  handlers.o(i.__scatterload_copy)
    i.__scatterload_null                     0x08009892   Section        2  handlers.o(i.__scatterload_null)
    i.__scatterload_zeroinit                 0x08009894   Section       14  handlers.o(i.__scatterload_zeroinit)
    i.__set_errno                            0x080098a4   Section        0  errno.o(i.__set_errno)
    i._fp_digits                             0x080098b0   Section        0  printfa.o(i._fp_digits)
    _fp_digits                               0x080098b1   Thumb Code   366  printfa.o(i._fp_digits)
    i._is_digit                              0x08009a34   Section        0  scanf_fp.o(i._is_digit)
    i._printf_core                           0x08009a44   Section        0  printfa.o(i._printf_core)
    _printf_core                             0x08009a45   Thumb Code  1744  printfa.o(i._printf_core)
    i._printf_post_padding                   0x0800a120   Section        0  printfa.o(i._printf_post_padding)
    _printf_post_padding                     0x0800a121   Thumb Code    36  printfa.o(i._printf_post_padding)
    i._printf_pre_padding                    0x0800a144   Section        0  printfa.o(i._printf_pre_padding)
    _printf_pre_padding                      0x0800a145   Thumb Code    46  printfa.o(i._printf_pre_padding)
    i._sputc                                 0x0800a172   Section        0  printfa.o(i._sputc)
    _sputc                                   0x0800a173   Thumb Code    10  printfa.o(i._sputc)
    i.adc_base_config                        0x0800a17c   Section        0  at32f435_437_adc.o(i.adc_base_config)
    i.adc_base_default_para_init             0x0800a1a8   Section        0  at32f435_437_adc.o(i.adc_base_default_para_init)
    i.adc_common_config                      0x0800a1b8   Section        0  at32f435_437_adc.o(i.adc_common_config)
    i.adc_common_default_para_init           0x0800a23c   Section        0  at32f435_437_adc.o(i.adc_common_default_para_init)
    i.adc_enable                             0x0800a24e   Section        0  at32f435_437_adc.o(i.adc_enable)
    i.adc_ordinary_channel_set               0x0800a258   Section        0  at32f435_437_adc.o(i.adc_ordinary_channel_set)
    i.adc_ordinary_conversion_data_get       0x0800a2cc   Section        0  at32f435_437_adc.o(i.adc_ordinary_conversion_data_get)
    i.adc_ordinary_software_trigger_enable   0x0800a2d2   Section        0  at32f435_437_adc.o(i.adc_ordinary_software_trigger_enable)
    i.app_clear_sys_status                   0x0800a2dc   Section        0  hal_flash.o(i.app_clear_sys_status)
    i.convert_str_to_hex                     0x0800a380   Section        0  api_common.o(i.convert_str_to_hex)
    i.convert_str_to_uint32                  0x0800a3c8   Section        0  api_common.o(i.convert_str_to_uint32)
    i.crm_ahb_div_set                        0x0800a3fc   Section        0  at32f435_437_crm.o(i.crm_ahb_div_set)
    i.crm_apb1_div_set                       0x0800a40c   Section        0  at32f435_437_crm.o(i.crm_apb1_div_set)
    i.crm_apb2_div_set                       0x0800a41c   Section        0  at32f435_437_crm.o(i.crm_apb2_div_set)
    i.crm_auto_step_mode_enable              0x0800a42c   Section        0  at32f435_437_crm.o(i.crm_auto_step_mode_enable)
    i.crm_battery_powered_domain_reset       0x0800a448   Section        0  at32f435_437_crm.o(i.crm_battery_powered_domain_reset)
    i.crm_clock_source_enable                0x0800a458   Section        0  at32f435_437_crm.o(i.crm_clock_source_enable)
    i.crm_clocks_freq_get                    0x0800a49c   Section        0  at32f435_437_crm.o(i.crm_clocks_freq_get)
    i.crm_ertc_clock_enable                  0x0800a554   Section        0  at32f435_437_crm.o(i.crm_ertc_clock_enable)
    i.crm_ertc_clock_select                  0x0800a564   Section        0  at32f435_437_crm.o(i.crm_ertc_clock_select)
    i.crm_flag_get                           0x0800a584   Section        0  at32f435_437_crm.o(i.crm_flag_get)
    i.crm_hext_stable_wait                   0x0800a5a8   Section        0  at32f435_437_crm.o(i.crm_hext_stable_wait)
    i.crm_periph_clock_enable                0x0800a5d0   Section        0  at32f435_437_crm.o(i.crm_periph_clock_enable)
    i.crm_periph_reset                       0x0800a5fc   Section        0  at32f435_437_crm.o(i.crm_periph_reset)
    i.crm_pll_config                         0x0800a628   Section        0  at32f435_437_crm.o(i.crm_pll_config)
    i.crm_reset                              0x0800a660   Section        0  at32f435_437_crm.o(i.crm_reset)
    i.crm_sysclk_switch                      0x0800a6b8   Section        0  at32f435_437_crm.o(i.crm_sysclk_switch)
    i.crm_sysclk_switch_status_get           0x0800a6f0   Section        0  at32f435_437_crm.o(i.crm_sysclk_switch_status_get)
    i.ertc_bcd_to_num                        0x0800a700   Section        0  at32f435_437_ertc.o(i.ertc_bcd_to_num)
    i.ertc_calendar_get                      0x0800a714   Section        0  at32f435_437_ertc.o(i.ertc_calendar_get)
    i.ertc_date_set                          0x0800a784   Section        0  at32f435_437_ertc.o(i.ertc_date_set)
    i.ertc_divider_set                       0x0800a7fc   Section        0  at32f435_437_ertc.o(i.ertc_divider_set)
    i.ertc_flag_clear                        0x0800a83c   Section        0  at32f435_437_ertc.o(i.ertc_flag_clear)
    i.ertc_hour_mode_set                     0x0800a858   Section        0  at32f435_437_ertc.o(i.ertc_hour_mode_set)
    i.ertc_init_mode_enter                   0x0800a890   Section        0  at32f435_437_ertc.o(i.ertc_init_mode_enter)
    i.ertc_interrupt_flag_get                0x0800a8c4   Section        0  at32f435_437_ertc.o(i.ertc_interrupt_flag_get)
    i.ertc_num_to_bcd                        0x0800a93c   Section        0  at32f435_437_ertc.o(i.ertc_num_to_bcd)
    i.ertc_reset                             0x0800a954   Section        0  at32f435_437_ertc.o(i.ertc_reset)
    i.ertc_time_set                          0x0800a9d0   Section        0  at32f435_437_ertc.o(i.ertc_time_set)
    i.ertc_wait_update                       0x0800aa48   Section        0  at32f435_437_ertc.o(i.ertc_wait_update)
    i.ertc_write_protect_disable             0x0800aa74   Section        0  at32f435_437_ertc.o(i.ertc_write_protect_disable)
    i.exint_flag_clear                       0x0800aa84   Section        0  at32f435_437_exint.o(i.exint_flag_clear)
    i.exint_interrupt_flag_get               0x0800aa90   Section        0  at32f435_437_exint.o(i.exint_interrupt_flag_get)
    i.fabs                                   0x0800aaac   Section        0  fabs.o(i.fabs)
    i.flash_bank1_operation_status_get       0x0800aac4   Section        0  at32f435_437_flash.o(i.flash_bank1_operation_status_get)
    i.flash_bank1_operation_wait_for         0x0800aaec   Section        0  at32f435_437_flash.o(i.flash_bank1_operation_wait_for)
    i.flash_bank2_operation_status_get       0x0800ab10   Section        0  at32f435_437_flash.o(i.flash_bank2_operation_status_get)
    i.flash_bank2_operation_wait_for         0x0800ab38   Section        0  at32f435_437_flash.o(i.flash_bank2_operation_wait_for)
    i.flash_sector_erase                     0x0800ab5c   Section        0  at32f435_437_flash.o(i.flash_sector_erase)
    i.flash_unlock                           0x0800abc8   Section        0  at32f435_437_flash.o(i.flash_unlock)
    i.flash_word_program                     0x0800abe8   Section        0  at32f435_437_flash.o(i.flash_word_program)
    i.fputc                                  0x0800ac40   Section        0  hal_uart.o(i.fputc)
    i.gpio_bits_reset                        0x0800ac64   Section        0  at32f435_437_gpio.o(i.gpio_bits_reset)
    i.gpio_bits_set                          0x0800ac68   Section        0  at32f435_437_gpio.o(i.gpio_bits_set)
    i.gpio_bits_write                        0x0800ac6c   Section        0  at32f435_437_gpio.o(i.gpio_bits_write)
    i.gpio_default_para_init                 0x0800ac76   Section        0  at32f435_437_gpio.o(i.gpio_default_para_init)
    i.gpio_init                              0x0800ac8a   Section        0  at32f435_437_gpio.o(i.gpio_init)
    i.gpio_input_data_bit_read               0x0800acee   Section        0  at32f435_437_gpio.o(i.gpio_input_data_bit_read)
    i.gpio_output_data_bit_read              0x0800acfc   Section        0  at32f435_437_gpio.o(i.gpio_output_data_bit_read)
    i.gpio_pin_mux_config                    0x0800ad0a   Section        0  at32f435_437_gpio.o(i.gpio_pin_mux_config)
    i.id_write                               0x0800ad3a   Section        0  bsp_config.o(i.id_write)
    i.infor_get                              0x0800ada0   Section        0  bsp_config.o(i.infor_get)
    i.infor_rep                              0x0800adb8   Section        0  bsp_config.o(i.infor_rep)
    i.lick_frequency_get                     0x0800ae20   Section        0  hal_sleep.o(i.lick_frequency_get)
    i.lm_fifo_add_node_impolite              0x0800aed0   Section        0  api_fifo.o(i.lm_fifo_add_node_impolite)
    i.lm_fifo_delete_node                    0x0800af08   Section        0  api_fifo.o(i.lm_fifo_delete_node)
    i.lm_fifo_delete_node_for_ISR            0x0800af28   Section        0  api_fifo.o(i.lm_fifo_delete_node_for_ISR)
    i.lm_fifo_get_node                       0x0800af48   Section        0  api_fifo.o(i.lm_fifo_get_node)
    i.lm_fifo_init                           0x0800af60   Section        0  api_fifo.o(i.lm_fifo_init)
    i.lm_fifo_is_full                        0x0800af86   Section        0  api_fifo.o(i.lm_fifo_is_full)
    i.main                                   0x0800afa2   Section        0  main.o(i.main)
    i.nvic_irq_disable                       0x0800afc0   Section        0  at32f435_437_misc.o(i.nvic_irq_disable)
    i.nvic_irq_enable                        0x0800afe4   Section        0  at32f435_437_misc.o(i.nvic_irq_enable)
    i.nvic_priority_group_config             0x0800b060   Section        0  at32f435_437_misc.o(i.nvic_priority_group_config)
    i.nvic_vector_table_set                  0x0800b084   Section        0  at32f435_437_misc.o(i.nvic_vector_table_set)
    i.open_closs_gnss                        0x0800b098   Section        0  bsp_config.o(i.open_closs_gnss)
    i.open_closs_rdss                        0x0800b104   Section        0  bsp_config.o(i.open_closs_rdss)
    i.ota_start_rep                          0x0800b17c   Section        0  bsp_config.o(i.ota_start_rep)
    i.pwc_battery_powered_domain_access      0x0800b1c8   Section        0  at32f435_437_pwc.o(i.pwc_battery_powered_domain_access)
    i.sqrt                                   0x0800b1d8   Section        0  sqrt.o(i.sqrt)
    i.system_core_clock_update               0x0800b248   Section        0  system_at32f435_437.o(i.system_core_clock_update)
    i.systick_clock_source_config            0x0800b2e4   Section        0  at32f435_437_misc.o(i.systick_clock_source_config)
    i.tmr_channel_value_get                  0x0800b2fc   Section        0  at32f435_437_tmr.o(i.tmr_channel_value_get)
    i.tmr_counter_enable                     0x0800b324   Section        0  at32f435_437_tmr.o(i.tmr_counter_enable)
    i.tmr_div_value_set                      0x0800b32e   Section        0  at32f435_437_tmr.o(i.tmr_div_value_set)
    i.tmr_event_sw_trigger                   0x0800b332   Section        0  at32f435_437_tmr.o(i.tmr_event_sw_trigger)
    i.tmr_flag_clear                         0x0800b33a   Section        0  at32f435_437_tmr.o(i.tmr_flag_clear)
    i.tmr_input_channel_divider_set          0x0800b340   Section        0  at32f435_437_tmr.o(i.tmr_input_channel_divider_set)
    i.tmr_input_channel_init                 0x0800b372   Section        0  at32f435_437_tmr.o(i.tmr_input_channel_init)
    i.tmr_interrupt_enable                   0x0800b482   Section        0  at32f435_437_tmr.o(i.tmr_interrupt_enable)
    i.tmr_interrupt_flag_get                 0x0800b498   Section        0  at32f435_437_tmr.o(i.tmr_interrupt_flag_get)
    i.tmr_iremap_config                      0x0800b4ac   Section        0  at32f435_437_tmr.o(i.tmr_iremap_config)
    i.tmr_reset                              0x0800b4d0   Section        0  at32f435_437_tmr.o(i.tmr_reset)
    i.uart2_tx_string                        0x0800b5f0   Section        0  hal_uart.o(i.uart2_tx_string)
    i.uart3_tx_string                        0x0800b624   Section        0  hal_uart.o(i.uart3_tx_string)
    i.uart4_tx_string                        0x0800b658   Section        0  hal_uart.o(i.uart4_tx_string)
    i.usart_data_receive                     0x0800b68c   Section        0  at32f435_437_usart.o(i.usart_data_receive)
    i.usart_data_transmit                    0x0800b692   Section        0  at32f435_437_usart.o(i.usart_data_transmit)
    i.usart_enable                           0x0800b69a   Section        0  at32f435_437_usart.o(i.usart_enable)
    i.usart_flag_clear                       0x0800b6a4   Section        0  at32f435_437_usart.o(i.usart_flag_clear)
    i.usart_flag_get                         0x0800b6b4   Section        0  at32f435_437_usart.o(i.usart_flag_get)
    i.usart_init                             0x0800b6c0   Section        0  at32f435_437_usart.o(i.usart_init)
    i.usart_interrupt_enable                 0x0800b744   Section        0  at32f435_437_usart.o(i.usart_interrupt_enable)
    i.usart_interrupt_flag_get               0x0800b762   Section        0  at32f435_437_usart.o(i.usart_interrupt_flag_get)
    i.usart_receiver_enable                  0x0800b7ee   Section        0  at32f435_437_usart.o(i.usart_receiver_enable)
    i.usart_transmit_receive_pin_swap        0x0800b7f8   Section        0  at32f435_437_usart.o(i.usart_transmit_receive_pin_swap)
    i.usart_transmitter_enable               0x0800b802   Section        0  at32f435_437_usart.o(i.usart_transmitter_enable)
    i.versions_rep                           0x0800b80c   Section        0  bsp_config.o(i.versions_rep)
    .constdata                               0x0800b824   Section       22  system_at32f435_437.o(.constdata)
    pll_fr_table                             0x0800b824   Data           6  system_at32f435_437.o(.constdata)
    sys_ahb_div_table                        0x0800b82a   Data          16  system_at32f435_437.o(.constdata)
    .constdata                               0x0800b83a   Section       38  at32f435_437_crm.o(.constdata)
    pll_fr_table                             0x0800b83a   Data           6  at32f435_437_crm.o(.constdata)
    ahb_apb1_div_table                       0x0800b840   Data           8  at32f435_437_crm.o(.constdata)
    ahb_apb2_div_table                       0x0800b848   Data           8  at32f435_437_crm.o(.constdata)
    sclk_ahb_div_table                       0x0800b850   Data          16  at32f435_437_crm.o(.constdata)
    .constdata                               0x0800b860   Section      200  bsp_batvol.o(.constdata)
    .constdata                               0x0800b928   Section       33  bsp_gnssparse.o(.constdata)
    .constdata                               0x0800b949   Section       22  bsp_rdssparse.o(.constdata)
    .constdata                               0x0800b960   Section       80  asin.o(.constdata)
    pS                                       0x0800b960   Data          48  asin.o(.constdata)
    qS                                       0x0800b990   Data          32  asin.o(.constdata)
    .constdata                               0x0800b9b0   Section       12  mktime.o(.constdata)
    monlen                                   0x0800b9b0   Data          12  mktime.o(.constdata)
    .constdata                               0x0800b9c0   Section       48  cos_i.o(.constdata)
    C                                        0x0800b9c0   Data          48  cos_i.o(.constdata)
    .constdata                               0x0800b9f0   Section      200  rred.o(.constdata)
    pio2s                                    0x0800b9f0   Data          48  rred.o(.constdata)
    twooverpi                                0x0800ba20   Data         152  rred.o(.constdata)
    .constdata                               0x0800bab8   Section       40  sin_i.o(.constdata)
    S                                        0x0800bab8   Data          40  sin_i.o(.constdata)
    .constdata                               0x0800bae0   Section       12  localtime_i.o(.constdata)
    monlen                                   0x0800bae0   Data          12  localtime_i.o(.constdata)
    .constdata                               0x0800baec   Section       64  ctype_c.o(.constdata)
    .conststring                             0x0800bb2c   Section      864  bsp_rdsssend.o(.conststring)
    .data                                    0x20000000   Section        4  system_at32f435_437.o(.data)
    .data                                    0x20000004   Section        4  hal_uart.o(.data)
    .data                                    0x20000008   Section       28  hal_sleep.o(.data)
    .data                                    0x20000024   Section        4  hal_flash.o(.data)
    .data                                    0x20000028   Section       12  bsp_keyled.o(.data)
    .data                                    0x20000034   Section        8  bsp_batvol.o(.data)
    .data                                    0x2000003c   Section        6  bsp_gnssparse.o(.data)
    .data                                    0x20000042   Section        1  bsp_config.o(.data)
    .data                                    0x20000044   Section        8  sys_timerun.o(.data)
    .data                                    0x2000004c   Section        4  errno.o(.data)
    _errno                                   0x2000004c   Data           4  errno.o(.data)
    .bss                                     0x20000050   Section       12  bsp_keyled.o(.bss)
    .bss                                     0x2000005c   Section     2080  bsp_uartrec.o(.bss)
    .bss                                     0x2000087c   Section       20  bsp_batvol.o(.bss)
    .bss                                     0x20000890   Section      608  bsp_gnssparse.o(.bss)
    .bss                                     0x20000af0   Section      444  bsp_rdssparse.o(.bss)
    .bss                                     0x20000cb0   Section     2408  bsp_rdsssend.o(.bss)
    .bss                                     0x20001618   Section      217  bsp_config.o(.bss)
    STACK                                    0x200016f8   Section     1024  startup_at32f435_437.o(STACK)

    Global Symbols

    Symbol Name                              Value     Ov Type        Size  Object(Section)

    BuildAttributes$$THM_ISAv4$E$P$D$K$B$S$7EM$VFPi3$EXTD16$VFPS$VFMA$PE$A:L22UL41UL21$X:L11$S22US41US21$IEEE1$IW$USESV6$~STKCKD$USESV7$~SHL$OTIME$ROPI$IEEEX$EBA8$MICROLIB$REQ8$PRES8$EABIv2 0x00000000   Number         0  anon$$obj.o ABSOLUTE
    __ARM_use_no_argv                        0x00000000   Number         0  main.o ABSOLUTE
    __use_no_errno                           0x00000000   Number         0  useno.o ABSOLUTE
    __use_no_exception_handling              0x00000000   Number         0  useno.o ABSOLUTE
    __use_no_fp                              0x00000000   Number         0  useno.o ABSOLUTE
    __use_no_heap                            0x00000000   Number         0  useno.o ABSOLUTE
    __use_no_heap_region                     0x00000000   Number         0  useno.o ABSOLUTE
    __use_no_semihosting                     0x00000000   Number         0  useno.o ABSOLUTE
    __use_no_semihosting_swi                 0x00000000   Number         0  useno.o ABSOLUTE
    __use_no_signal_handling                 0x00000000   Number         0  useno.o ABSOLUTE
    _printf_a                                0x00000000   Number         0  stubs.o ABSOLUTE
    _printf_c                                0x00000000   Number         0  stubs.o ABSOLUTE
    _printf_charcount                        0x00000000   Number         0  stubs.o ABSOLUTE
    _printf_d                                0x00000000   Number         0  stubs.o ABSOLUTE
    _printf_e                                0x00000000   Number         0  stubs.o ABSOLUTE
    _printf_f                                0x00000000   Number         0  stubs.o ABSOLUTE
    _printf_flags                            0x00000000   Number         0  stubs.o ABSOLUTE
    _printf_fp_dec                           0x00000000   Number         0  stubs.o ABSOLUTE
    _printf_fp_hex                           0x00000000   Number         0  stubs.o ABSOLUTE
    _printf_g                                0x00000000   Number         0  stubs.o ABSOLUTE
    _printf_i                                0x00000000   Number         0  stubs.o ABSOLUTE
    _printf_int_dec                          0x00000000   Number         0  stubs.o ABSOLUTE
    _printf_l                                0x00000000   Number         0  stubs.o ABSOLUTE
    _printf_lc                               0x00000000   Number         0  stubs.o ABSOLUTE
    _printf_ll                               0x00000000   Number         0  stubs.o ABSOLUTE
    _printf_lld                              0x00000000   Number         0  stubs.o ABSOLUTE
    _printf_lli                              0x00000000   Number         0  stubs.o ABSOLUTE
    _printf_llo                              0x00000000   Number         0  stubs.o ABSOLUTE
    _printf_llu                              0x00000000   Number         0  stubs.o ABSOLUTE
    _printf_llx                              0x00000000   Number         0  stubs.o ABSOLUTE
    _printf_longlong_dec                     0x00000000   Number         0  stubs.o ABSOLUTE
    _printf_longlong_hex                     0x00000000   Number         0  stubs.o ABSOLUTE
    _printf_longlong_oct                     0x00000000   Number         0  stubs.o ABSOLUTE
    _printf_ls                               0x00000000   Number         0  stubs.o ABSOLUTE
    _printf_mbtowc                           0x00000000   Number         0  stubs.o ABSOLUTE
    _printf_n                                0x00000000   Number         0  stubs.o ABSOLUTE
    _printf_o                                0x00000000   Number         0  stubs.o ABSOLUTE
    _printf_p                                0x00000000   Number         0  stubs.o ABSOLUTE
    _printf_percent                          0x00000000   Number         0  stubs.o ABSOLUTE
    _printf_pre_padding                      0x00000000   Number         0  stubs.o ABSOLUTE
    _printf_return_value                     0x00000000   Number         0  stubs.o ABSOLUTE
    _printf_s                                0x00000000   Number         0  stubs.o ABSOLUTE
    _printf_sizespec                         0x00000000   Number         0  stubs.o ABSOLUTE
    _printf_str                              0x00000000   Number         0  stubs.o ABSOLUTE
    _printf_truncate_signed                  0x00000000   Number         0  stubs.o ABSOLUTE
    _printf_truncate_unsigned                0x00000000   Number         0  stubs.o ABSOLUTE
    _printf_u                                0x00000000   Number         0  stubs.o ABSOLUTE
    _printf_wc                               0x00000000   Number         0  stubs.o ABSOLUTE
    _printf_wctomb                           0x00000000   Number         0  stubs.o ABSOLUTE
    _printf_widthprec                        0x00000000   Number         0  stubs.o ABSOLUTE
    _printf_x                                0x00000000   Number         0  stubs.o ABSOLUTE
    __cpp_initialize__aeabi_                  - Undefined Weak Reference
    __cxa_finalize                            - Undefined Weak Reference
    __decompress                              - Undefined Weak Reference
    _clock_init                               - Undefined Weak Reference
    _microlib_exit                            - Undefined Weak Reference
    _scanf_longlong                           - Undefined Weak Reference
    _scanf_string                             - Undefined Weak Reference
    __Vectors_Size                           0x0000020c   Number         0  startup_at32f435_437.o ABSOLUTE
    __Vectors                                0x08004000   Data           4  startup_at32f435_437.o(RESET)
    __Vectors_End                            0x0800420c   Data           0  startup_at32f435_437.o(RESET)
    __main                                   0x0800420d   Thumb Code     0  entry.o(.ARM.Collect$$$$00000000)
    _main_stk                                0x0800420d   Thumb Code     0  entry2.o(.ARM.Collect$$$$00000001)
    _main_scatterload                        0x08004211   Thumb Code     0  entry5.o(.ARM.Collect$$$$00000004)
    __main_after_scatterload                 0x08004215   Thumb Code     0  entry5.o(.ARM.Collect$$$$00000004)
    _main_clock                              0x08004215   Thumb Code     0  entry7b.o(.ARM.Collect$$$$00000008)
    _main_cpp_init                           0x08004215   Thumb Code     0  entry8b.o(.ARM.Collect$$$$0000000A)
    _main_init                               0x08004215   Thumb Code     0  entry9a.o(.ARM.Collect$$$$0000000B)
    __rt_final_cpp                           0x0800421d   Thumb Code     0  entry10a.o(.ARM.Collect$$$$0000000D)
    __rt_final_exit                          0x0800421d   Thumb Code     0  entry11a.o(.ARM.Collect$$$$0000000F)
    Reset_Handler                            0x08004221   Thumb Code     8  startup_at32f435_437.o(.text)
    NMI_Handler                              0x08004229   Thumb Code     2  startup_at32f435_437.o(.text)
    HardFault_Handler                        0x0800422b   Thumb Code     2  startup_at32f435_437.o(.text)
    MemManage_Handler                        0x0800422d   Thumb Code     2  startup_at32f435_437.o(.text)
    BusFault_Handler                         0x0800422f   Thumb Code     2  startup_at32f435_437.o(.text)
    UsageFault_Handler                       0x08004231   Thumb Code     2  startup_at32f435_437.o(.text)
    SVC_Handler                              0x08004233   Thumb Code     2  startup_at32f435_437.o(.text)
    DebugMon_Handler                         0x08004235   Thumb Code     2  startup_at32f435_437.o(.text)
    PendSV_Handler                           0x08004237   Thumb Code     2  startup_at32f435_437.o(.text)
    ACC_IRQHandler                           0x0800423b   Thumb Code     0  startup_at32f435_437.o(.text)
    ADC1_2_3_IRQHandler                      0x0800423b   Thumb Code     0  startup_at32f435_437.o(.text)
    CAN1_RX0_IRQHandler                      0x0800423b   Thumb Code     0  startup_at32f435_437.o(.text)
    CAN1_RX1_IRQHandler                      0x0800423b   Thumb Code     0  startup_at32f435_437.o(.text)
    CAN1_SE_IRQHandler                       0x0800423b   Thumb Code     0  startup_at32f435_437.o(.text)
    CAN1_TX_IRQHandler                       0x0800423b   Thumb Code     0  startup_at32f435_437.o(.text)
    CAN2_RX0_IRQHandler                      0x0800423b   Thumb Code     0  startup_at32f435_437.o(.text)
    CAN2_RX1_IRQHandler                      0x0800423b   Thumb Code     0  startup_at32f435_437.o(.text)
    CAN2_SE_IRQHandler                       0x0800423b   Thumb Code     0  startup_at32f435_437.o(.text)
    CAN2_TX_IRQHandler                       0x0800423b   Thumb Code     0  startup_at32f435_437.o(.text)
    CRM_IRQHandler                           0x0800423b   Thumb Code     0  startup_at32f435_437.o(.text)
    DMA1_Channel1_IRQHandler                 0x0800423b   Thumb Code     0  startup_at32f435_437.o(.text)
    DMA1_Channel2_IRQHandler                 0x0800423b   Thumb Code     0  startup_at32f435_437.o(.text)
    DMA1_Channel3_IRQHandler                 0x0800423b   Thumb Code     0  startup_at32f435_437.o(.text)
    DMA1_Channel4_IRQHandler                 0x0800423b   Thumb Code     0  startup_at32f435_437.o(.text)
    DMA1_Channel5_IRQHandler                 0x0800423b   Thumb Code     0  startup_at32f435_437.o(.text)
    DMA1_Channel6_IRQHandler                 0x0800423b   Thumb Code     0  startup_at32f435_437.o(.text)
    DMA1_Channel7_IRQHandler                 0x0800423b   Thumb Code     0  startup_at32f435_437.o(.text)
    DMA2_Channel1_IRQHandler                 0x0800423b   Thumb Code     0  startup_at32f435_437.o(.text)
    DMA2_Channel2_IRQHandler                 0x0800423b   Thumb Code     0  startup_at32f435_437.o(.text)
    DMA2_Channel3_IRQHandler                 0x0800423b   Thumb Code     0  startup_at32f435_437.o(.text)
    DMA2_Channel4_IRQHandler                 0x0800423b   Thumb Code     0  startup_at32f435_437.o(.text)
    DMA2_Channel5_IRQHandler                 0x0800423b   Thumb Code     0  startup_at32f435_437.o(.text)
    DMA2_Channel6_IRQHandler                 0x0800423b   Thumb Code     0  startup_at32f435_437.o(.text)
    DMA2_Channel7_IRQHandler                 0x0800423b   Thumb Code     0  startup_at32f435_437.o(.text)
    DMAMUX_IRQHandler                        0x0800423b   Thumb Code     0  startup_at32f435_437.o(.text)
    DVP_IRQHandler                           0x0800423b   Thumb Code     0  startup_at32f435_437.o(.text)
    EDMA_Stream1_IRQHandler                  0x0800423b   Thumb Code     0  startup_at32f435_437.o(.text)
    EDMA_Stream2_IRQHandler                  0x0800423b   Thumb Code     0  startup_at32f435_437.o(.text)
    EDMA_Stream3_IRQHandler                  0x0800423b   Thumb Code     0  startup_at32f435_437.o(.text)
    EDMA_Stream4_IRQHandler                  0x0800423b   Thumb Code     0  startup_at32f435_437.o(.text)
    EDMA_Stream5_IRQHandler                  0x0800423b   Thumb Code     0  startup_at32f435_437.o(.text)
    EDMA_Stream6_IRQHandler                  0x0800423b   Thumb Code     0  startup_at32f435_437.o(.text)
    EDMA_Stream7_IRQHandler                  0x0800423b   Thumb Code     0  startup_at32f435_437.o(.text)
    EDMA_Stream8_IRQHandler                  0x0800423b   Thumb Code     0  startup_at32f435_437.o(.text)
    EMAC_IRQHandler                          0x0800423b   Thumb Code     0  startup_at32f435_437.o(.text)
    EMAC_WKUP_IRQHandler                     0x0800423b   Thumb Code     0  startup_at32f435_437.o(.text)
    ERTC_WKUP_IRQHandler                     0x0800423b   Thumb Code     0  startup_at32f435_437.o(.text)
    EXINT15_10_IRQHandler                    0x0800423b   Thumb Code     0  startup_at32f435_437.o(.text)
    EXINT2_IRQHandler                        0x0800423b   Thumb Code     0  startup_at32f435_437.o(.text)
    EXINT3_IRQHandler                        0x0800423b   Thumb Code     0  startup_at32f435_437.o(.text)
    EXINT4_IRQHandler                        0x0800423b   Thumb Code     0  startup_at32f435_437.o(.text)
    FLASH_IRQHandler                         0x0800423b   Thumb Code     0  startup_at32f435_437.o(.text)
    FPU_IRQHandler                           0x0800423b   Thumb Code     0  startup_at32f435_437.o(.text)
    I2C1_ERR_IRQHandler                      0x0800423b   Thumb Code     0  startup_at32f435_437.o(.text)
    I2C1_EVT_IRQHandler                      0x0800423b   Thumb Code     0  startup_at32f435_437.o(.text)
    I2C2_ERR_IRQHandler                      0x0800423b   Thumb Code     0  startup_at32f435_437.o(.text)
    I2C2_EVT_IRQHandler                      0x0800423b   Thumb Code     0  startup_at32f435_437.o(.text)
    I2C3_ERR_IRQHandler                      0x0800423b   Thumb Code     0  startup_at32f435_437.o(.text)
    I2C3_EVT_IRQHandler                      0x0800423b   Thumb Code     0  startup_at32f435_437.o(.text)
    OTGFS1_IRQHandler                        0x0800423b   Thumb Code     0  startup_at32f435_437.o(.text)
    OTGFS1_WKUP_IRQHandler                   0x0800423b   Thumb Code     0  startup_at32f435_437.o(.text)
    OTGFS2_IRQHandler                        0x0800423b   Thumb Code     0  startup_at32f435_437.o(.text)
    OTGFS2_WKUP_IRQHandler                   0x0800423b   Thumb Code     0  startup_at32f435_437.o(.text)
    PVM_IRQHandler                           0x0800423b   Thumb Code     0  startup_at32f435_437.o(.text)
    QSPI1_IRQHandler                         0x0800423b   Thumb Code     0  startup_at32f435_437.o(.text)
    QSPI2_IRQHandler                         0x0800423b   Thumb Code     0  startup_at32f435_437.o(.text)
    SDIO1_IRQHandler                         0x0800423b   Thumb Code     0  startup_at32f435_437.o(.text)
    SDIO2_IRQHandler                         0x0800423b   Thumb Code     0  startup_at32f435_437.o(.text)
    SPI1_IRQHandler                          0x0800423b   Thumb Code     0  startup_at32f435_437.o(.text)
    SPI2_I2S2EXT_IRQHandler                  0x0800423b   Thumb Code     0  startup_at32f435_437.o(.text)
    SPI3_I2S3EXT_IRQHandler                  0x0800423b   Thumb Code     0  startup_at32f435_437.o(.text)
    SPI4_IRQHandler                          0x0800423b   Thumb Code     0  startup_at32f435_437.o(.text)
    TAMP_STAMP_IRQHandler                    0x0800423b   Thumb Code     0  startup_at32f435_437.o(.text)
    TMR1_BRK_TMR9_IRQHandler                 0x0800423b   Thumb Code     0  startup_at32f435_437.o(.text)
    TMR1_CH_IRQHandler                       0x0800423b   Thumb Code     0  startup_at32f435_437.o(.text)
    TMR1_OVF_TMR10_IRQHandler                0x0800423b   Thumb Code     0  startup_at32f435_437.o(.text)
    TMR1_TRG_HALL_TMR11_IRQHandler           0x0800423b   Thumb Code     0  startup_at32f435_437.o(.text)
    TMR20_BRK_IRQHandler                     0x0800423b   Thumb Code     0  startup_at32f435_437.o(.text)
    TMR20_CH_IRQHandler                      0x0800423b   Thumb Code     0  startup_at32f435_437.o(.text)
    TMR20_OVF_IRQHandler                     0x0800423b   Thumb Code     0  startup_at32f435_437.o(.text)
    TMR20_TRG_HALL_IRQHandler                0x0800423b   Thumb Code     0  startup_at32f435_437.o(.text)
    TMR2_GLOBAL_IRQHandler                   0x0800423b   Thumb Code     0  startup_at32f435_437.o(.text)
    TMR3_GLOBAL_IRQHandler                   0x0800423b   Thumb Code     0  startup_at32f435_437.o(.text)
    TMR4_GLOBAL_IRQHandler                   0x0800423b   Thumb Code     0  startup_at32f435_437.o(.text)
    TMR6_DAC_GLOBAL_IRQHandler               0x0800423b   Thumb Code     0  startup_at32f435_437.o(.text)
    TMR7_GLOBAL_IRQHandler                   0x0800423b   Thumb Code     0  startup_at32f435_437.o(.text)
    TMR8_BRK_TMR12_IRQHandler                0x0800423b   Thumb Code     0  startup_at32f435_437.o(.text)
    TMR8_CH_IRQHandler                       0x0800423b   Thumb Code     0  startup_at32f435_437.o(.text)
    TMR8_OVF_TMR13_IRQHandler                0x0800423b   Thumb Code     0  startup_at32f435_437.o(.text)
    TMR8_TRG_HALL_TMR14_IRQHandler           0x0800423b   Thumb Code     0  startup_at32f435_437.o(.text)
    UART5_IRQHandler                         0x0800423b   Thumb Code     0  startup_at32f435_437.o(.text)
    UART7_IRQHandler                         0x0800423b   Thumb Code     0  startup_at32f435_437.o(.text)
    UART8_IRQHandler                         0x0800423b   Thumb Code     0  startup_at32f435_437.o(.text)
    USART6_IRQHandler                        0x0800423b   Thumb Code     0  startup_at32f435_437.o(.text)
    WWDT_IRQHandler                          0x0800423b   Thumb Code     0  startup_at32f435_437.o(.text)
    XMC_IRQHandler                           0x0800423b   Thumb Code     0  startup_at32f435_437.o(.text)
    __aeabi_uldivmod                         0x08004245   Thumb Code    98  uldiv.o(.text)
    mktime                                   0x080042a9   Thumb Code   150  mktime.o(.text)
    __aeabi_memcpy                           0x08004351   Thumb Code    36  memcpya.o(.text)
    __aeabi_memcpy4                          0x08004351   Thumb Code     0  memcpya.o(.text)
    __aeabi_memcpy8                          0x08004351   Thumb Code     0  memcpya.o(.text)
    __aeabi_memset                           0x08004375   Thumb Code    14  memseta.o(.text)
    __aeabi_memset4                          0x08004375   Thumb Code     0  memseta.o(.text)
    __aeabi_memset8                          0x08004375   Thumb Code     0  memseta.o(.text)
    __aeabi_memclr                           0x08004383   Thumb Code     4  memseta.o(.text)
    __aeabi_memclr4                          0x08004383   Thumb Code     0  memseta.o(.text)
    __aeabi_memclr8                          0x08004383   Thumb Code     0  memseta.o(.text)
    _memset$wrapper                          0x08004387   Thumb Code    18  memseta.o(.text)
    strlen                                   0x08004399   Thumb Code    14  strlen.o(.text)
    memcmp                                   0x080043a7   Thumb Code    26  memcmp.o(.text)
    __0sscanf                                0x080043c1   Thumb Code    48  __0sscanf.o(.text)
    _scanf_int                               0x080043f9   Thumb Code   332  _scanf_int.o(.text)
    __aeabi_dadd                             0x08004545   Thumb Code   322  dadd.o(.text)
    __aeabi_dsub                             0x08004687   Thumb Code     6  dadd.o(.text)
    __aeabi_drsub                            0x0800468d   Thumb Code     6  dadd.o(.text)
    __aeabi_dmul                             0x08004693   Thumb Code   228  dmul.o(.text)
    __aeabi_ddiv                             0x08004777   Thumb Code   222  ddiv.o(.text)
    __aeabi_ui2d                             0x08004855   Thumb Code    26  dfltui.o(.text)
    __aeabi_d2uiz                            0x0800486f   Thumb Code    50  dfixui.o(.text)
    __aeabi_f2d                              0x080048a1   Thumb Code    38  f2d.o(.text)
    __aeabi_cdcmpeq                          0x080048c9   Thumb Code     0  cdcmple.o(.text)
    __aeabi_cdcmple                          0x080048c9   Thumb Code    48  cdcmple.o(.text)
    __aeabi_cdrcmple                         0x080048f9   Thumb Code    48  cdrcmple.o(.text)
    __aeabi_d2f                              0x08004929   Thumb Code    56  d2f.o(.text)
    __aeabi_uidiv                            0x08004961   Thumb Code     0  uidiv.o(.text)
    __aeabi_uidivmod                         0x08004961   Thumb Code    44  uidiv.o(.text)
    __aeabi_llsl                             0x0800498d   Thumb Code    30  llshl.o(.text)
    _ll_shift_l                              0x0800498d   Thumb Code     0  llshl.o(.text)
    __aeabi_llsr                             0x080049ab   Thumb Code    32  llushr.o(.text)
    _ll_ushift_r                             0x080049ab   Thumb Code     0  llushr.o(.text)
    __aeabi_lasr                             0x080049cb   Thumb Code    36  llsshr.o(.text)
    _ll_sshift_r                             0x080049cb   Thumb Code     0  llsshr.o(.text)
    _localtime                               0x080049f1   Thumb Code   134  localtime_i.o(.text)
    _chval                                   0x08004a7d   Thumb Code    28  _chval.o(.text)
    __vfscanf_char                           0x08004aa5   Thumb Code    20  scanf_char.o(.text)
    _sgetc                                   0x08004ac1   Thumb Code    30  _sgetc.o(.text)
    _sbackspace                              0x08004adf   Thumb Code    34  _sgetc.o(.text)
    __strtod_int                             0x08004b37   Thumb Code    90  strtod.o(.text)
    __I$use$fp                               0x08004b9d   Thumb Code     0  iusefp.o(.text)
    _float_round                             0x08004b9d   Thumb Code    18  fepilogue.o(.text)
    _float_epilogue                          0x08004baf   Thumb Code    92  fepilogue.o(.text)
    _double_round                            0x08004c0b   Thumb Code    30  depilogue.o(.text)
    _double_epilogue                         0x08004c29   Thumb Code   156  depilogue.o(.text)
    _dsqrt                                   0x08004cc5   Thumb Code   162  dsqrt.o(.text)
    __aeabi_d2ulz                            0x08004d67   Thumb Code    48  dfixul.o(.text)
    __scatterload                            0x08004d99   Thumb Code    28  init.o(.text)
    __scatterload_rt2                        0x08004d99   Thumb Code     0  init.o(.text)
    isspace                                  0x08004dbd   Thumb Code    10  isspace_c.o(.text)
    __vfscanf                                0x08004dc9   Thumb Code   808  _scanf.o(.text)
    _scanf_real                              0x0800521d   Thumb Code     0  scanf_fp.o(.text)
    _scanf_really_real                       0x0800521d   Thumb Code   556  scanf_fp.o(.text)
    __aeabi_i2d                              0x08005455   Thumb Code    34  dflti.o(.text)
    __aeabi_d2iz                             0x08005477   Thumb Code    62  dfixi.o(.text)
    __ctype_lookup                           0x080054b5   Thumb Code    34  ctype_c.o(.text)
    __aeabi_ul2d                             0x080054dd   Thumb Code    24  dfltul.o(.text)
    ADConvert                                0x080054f5   Thumb Code    98  bsp_batvol.o(i.ADConvert)
    API_Check_Xor                            0x08005561   Thumb Code    24  bsp_rdsssend.o(i.API_Check_Xor)
    API_Funftoa                              0x08005579   Thumb Code   264  bsp_rdsssend.o(i.API_Funftoa)
    API_Hex8_To_String                       0x080056a1   Thumb Code    44  bsp_rdsssend.o(i.API_Hex8_To_String)
    Api_Acc_Speed                            0x080056cd   Thumb Code     8  bsp_gnssparse.o(i.Api_Acc_Speed)
    Api_Loca_Distance                        0x080056d5   Thumb Code   282  bsp_gnssparse.o(i.Api_Loca_Distance)
    Api_Location_Data_Turn                   0x08005811   Thumb Code   108  bsp_gnssparse.o(i.Api_Location_Data_Turn)
    Arithmetic_Average                       0x08005891   Thumb Code    50  bsp_batvol.o(i.Arithmetic_Average)
    Bps_Start_Always_Updata_BatVol_Percent   0x080058c5   Thumb Code    10  bsp_batvol.o(i.Bps_Start_Always_Updata_BatVol_Percent)
    Bps_Start_Once_Time_Updata_BatVol_Percent 0x080058d5   Thumb Code    16  bsp_batvol.o(i.Bps_Start_Once_Time_Updata_BatVol_Percent)
    Bsp_Add_Loca_Queue                       0x080058e9   Thumb Code  1576  bsp_rdsssend.o(i.Bsp_Add_Loca_Queue)
    Bsp_BDS_Data_Send                        0x08005f11   Thumb Code    60  bsp_rdsssend.o(i.Bsp_BDS_Data_Send)
    Bsp_Bat_Vol_Display                      0x08005f5d   Thumb Code    98  bsp_keyled.o(i.Bsp_Bat_Vol_Display)
    Bsp_Error_Led_Display                    0x08005fc5   Thumb Code    24  bsp_keyled.o(i.Bsp_Error_Led_Display)
    Bsp_Float_to_Buf                         0x08005fe1   Thumb Code    10  bsp_rdsssend.o(i.Bsp_Float_to_Buf)
    Bsp_GNSS_Data_Deal                       0x08005ff5   Thumb Code   524  bsp_gnssparse.o(i.Bsp_GNSS_Data_Deal)
    Bsp_GNSS_Data_Parse_String               0x08006211   Thumb Code   108  bsp_gnssparse.o(i.Bsp_GNSS_Data_Parse_String)
    Bsp_GNSS_Init                            0x080062b1   Thumb Code    14  bsp_gnssparse.o(i.Bsp_GNSS_Init)
    Bsp_GNSS_Parse_Init                      0x080062c1   Thumb Code    32  bsp_gnssparse.o(i.Bsp_GNSS_Parse_Init)
    Bsp_GNSS_Split_Data_Init                 0x080062e9   Thumb Code    52  bsp_gnssparse.o(i.Bsp_GNSS_Split_Data_Init)
    Bsp_Get_BatPercent                       0x08006325   Thumb Code     6  bsp_batvol.o(i.Bsp_Get_BatPercent)
    Bsp_Get_CardID                           0x08006331   Thumb Code    16  bsp_config.o(i.Bsp_Get_CardID)
    Bsp_Get_Location                         0x08006345   Thumb Code   190  bsp_gnssparse.o(i.Bsp_Get_Location)
    Bsp_Get_Pow_State                        0x08006485   Thumb Code     6  bsp_keyled.o(i.Bsp_Get_Pow_State)
    Bsp_Get_SloarVol                         0x08006491   Thumb Code    30  bsp_batvol.o(i.Bsp_Get_SloarVol)
    Bsp_Get_SloarVolFloat                    0x080064bd   Thumb Code    32  bsp_batvol.o(i.Bsp_Get_SloarVolFloat)
    Bsp_Get_Sys_State                        0x080064e9   Thumb Code     6  bsp_keyled.o(i.Bsp_Get_Sys_State)
    Bsp_Get_Temp                             0x080064f5   Thumb Code    76  bsp_batvol.o(i.Bsp_Get_Temp)
    Bsp_Get_Updata_Bat_Voltage_Once_State    0x0800656d   Thumb Code     6  bsp_batvol.o(i.Bsp_Get_Updata_Bat_Voltage_Once_State)
    Bsp_Gnss_Data_Check                      0x08006579   Thumb Code    90  bsp_gnssparse.o(i.Bsp_Gnss_Data_Check)
    Bsp_Gnss_Loca_If_Vaild                   0x080065e1   Thumb Code    24  bsp_gnssparse.o(i.Bsp_Gnss_Loca_If_Vaild)
    Bsp_Gnss_Parse_Byte                      0x080065fd   Thumb Code    72  bsp_gnssparse.o(i.Bsp_Gnss_Parse_Byte)
    Bsp_Gnss_RMC_Data_Split                  0x08006649   Thumb Code   366  bsp_gnssparse.o(i.Bsp_Gnss_RMC_Data_Split)
    Bsp_MagKey_Scan                          0x080067bd   Thumb Code    76  bsp_keyled.o(i.Bsp_MagKey_Scan)
    Bsp_Nor_SOS_SendCtrl                     0x0800682d   Thumb Code   406  bsp_rdsssend.o(i.Bsp_Nor_SOS_SendCtrl)
    Bsp_Port_InforGet_Ctrl                   0x08006b0d   Thumb Code   166  bsp_config.o(i.Bsp_Port_InforGet_Ctrl)
    Bsp_Port_Parse_Byte                      0x08006bbd   Thumb Code   104  bsp_config.o(i.Bsp_Port_Parse_Byte)
    Bsp_Pull_SendCtrl                        0x08006c29   Thumb Code   372  bsp_rdsssend.o(i.Bsp_Pull_SendCtrl)
    Bsp_RDSS_Data_Parse_String               0x08006e7d   Thumb Code   132  bsp_rdssparse.o(i.Bsp_RDSS_Data_Parse_String)
    Bsp_RDSS_Init                            0x08006f65   Thumb Code    14  bsp_rdssparse.o(i.Bsp_RDSS_Init)
    Bsp_RDSS_Parse_Init                      0x08006f75   Thumb Code    34  bsp_rdssparse.o(i.Bsp_RDSS_Parse_Init)
    Bsp_RDSS_Split_Data_Init                 0x08006f9d   Thumb Code     8  bsp_rdssparse.o(i.Bsp_RDSS_Split_Data_Init)
    Bsp_Rdss_Data_Check                      0x08006fa9   Thumb Code    90  bsp_rdssparse.o(i.Bsp_Rdss_Data_Check)
    Bsp_Rdss_ICP_Data_Split                  0x08007011   Thumb Code   158  bsp_rdssparse.o(i.Bsp_Rdss_ICP_Data_Split)
    Bsp_Rdss_PWI_Data_Split                  0x080070d5   Thumb Code   398  bsp_rdssparse.o(i.Bsp_Rdss_PWI_Data_Split)
    Bsp_Rdss_Parse_Byte                      0x08007269   Thumb Code    72  bsp_rdssparse.o(i.Bsp_Rdss_Parse_Byte)
    Bsp_Rdss_Signal_Is_Ok                    0x080072b5   Thumb Code    16  bsp_rdssparse.o(i.Bsp_Rdss_Signal_Is_Ok)
    Bsp_Rdss_Signal_Valid                    0x080072c9   Thumb Code    68  bsp_rdssparse.o(i.Bsp_Rdss_Signal_Valid)
    Bsp_Rdss_Tx_CCICR                        0x08007319   Thumb Code    26  bsp_rdsssend.o(i.Bsp_Rdss_Tx_CCICR)
    Bsp_Rdss_Tx_CCTCQ                        0x08007349   Thumb Code   348  bsp_rdsssend.o(i.Bsp_Rdss_Tx_CCTCQ)
    Bsp_Read_ID                              0x080074d5   Thumb Code     6  bsp_config.o(i.Bsp_Read_ID)
    Bsp_Receive_Uart1_Fifo_Data              0x080074e1   Thumb Code    32  bsp_uartrec.o(i.Bsp_Receive_Uart1_Fifo_Data)
    Bsp_Receive_Uart2_Fifo_Data              0x08007505   Thumb Code    24  bsp_uartrec.o(i.Bsp_Receive_Uart2_Fifo_Data)
    Bsp_Receive_Uart3_Fifo_Data              0x08007521   Thumb Code    32  bsp_uartrec.o(i.Bsp_Receive_Uart3_Fifo_Data)
    Bsp_Receive_Uart4_Fifo_Data              0x08007545   Thumb Code    32  bsp_uartrec.o(i.Bsp_Receive_Uart4_Fifo_Data)
    Bsp_Send_Get_CardID                      0x08007569   Thumb Code    22  bsp_rdsssend.o(i.Bsp_Send_Get_CardID)
    Bsp_Start_Move_Mode                      0x08007585   Thumb Code    54  bsp_rdsssend.o(i.Bsp_Start_Move_Mode)
    Bsp_Start_Normal_Mode                    0x080075c5   Thumb Code    54  bsp_rdsssend.o(i.Bsp_Start_Normal_Mode)
    Bsp_Start_PULL_Mode                      0x08007605   Thumb Code    54  bsp_rdsssend.o(i.Bsp_Start_PULL_Mode)
    Bsp_Start_SOS_Mode                       0x08007645   Thumb Code    54  bsp_rdsssend.o(i.Bsp_Start_SOS_Mode)
    Bsp_Sys_State_Ctrl                       0x08007685   Thumb Code   228  bsp_keyled.o(i.Bsp_Sys_State_Ctrl)
    Bsp_Uart_Fifo_Init                       0x08007781   Thumb Code    66  bsp_uartrec.o(i.Bsp_Uart_Fifo_Init)
    Bsp_Updata_Bat_Percent                   0x080077d5   Thumb Code   138  bsp_batvol.o(i.Bsp_Updata_Bat_Percent)
    Bsp_Vbat_Chag_Ctrl                       0x08007875   Thumb Code   244  bsp_keyled.o(i.Bsp_Vbat_Chag_Ctrl)
    Bsp_Write_Boot_Flag                      0x0800796d   Thumb Code     8  bsp_config.o(i.Bsp_Write_Boot_Flag)
    Bsp_Write_ID                             0x0800797d   Thumb Code     8  bsp_config.o(i.Bsp_Write_ID)
    ERTCAlarm_IRQHandler                     0x08007989   Thumb Code    34  hal_sleep.o(i.ERTCAlarm_IRQHandler)
    EXINT0_IRQHandler                        0x080079ab   Thumb Code    24  hal_keyled.o(i.EXINT0_IRQHandler)
    EXINT1_IRQHandler                        0x080079c3   Thumb Code    24  hal_keyled.o(i.EXINT1_IRQHandler)
    EXINT9_5_IRQHandler                      0x080079db   Thumb Code    24  hal_keyled.o(i.EXINT9_5_IRQHandler)
    Fun_Bsp_Init                             0x080079f3   Thumb Code     4  bsp_init.o(i.Fun_Bsp_Init)
    Fundtoa                                  0x080079f9   Thumb Code    40  api_common.o(i.Fundtoa)
    Gnss_Check_Xor                           0x08007a21   Thumb Code    24  bsp_gnssparse.o(i.Gnss_Check_Xor)
    Hal_ADC_Deinit                           0x08007a39   Thumb Code    22  hal_powmanage.o(i.Hal_ADC_Deinit)
    Hal_BatVol_Init                          0x08007a59   Thumb Code   208  hal_powmanage.o(i.Hal_BatVol_Init)
    Hal_Bat_Led_Display_Enable               0x08007b39   Thumb Code    62  hal_keyled.o(i.Hal_Bat_Led_Display_Enable)
    Hal_Bat_Led_Heartbeat                    0x08007b81   Thumb Code    34  hal_keyled.o(i.Hal_Bat_Led_Heartbeat)
    Hal_Charge_Init                          0x08007ba5   Thumb Code    90  hal_powmanage.o(i.Hal_Charge_Init)
    Hal_Error_Led_Display_Enable             0x08007c05   Thumb Code    54  hal_keyled.o(i.Hal_Error_Led_Display_Enable)
    Hal_Falsh_Jump                           0x08007c41   Thumb Code   150  hal_flash.o(i.Hal_Falsh_Jump)
    Hal_Flash_Read_Word                      0x08007ce9   Thumb Code     4  hal_flash.o(i.Hal_Flash_Read_Word)
    Hal_Flash_Write_Word                     0x08007ced   Thumb Code    28  hal_flash.o(i.Hal_Flash_Write_Word)
    Hal_Get_ADC1_Value                       0x08007d09   Thumb Code     6  hal_powmanage.o(i.Hal_Get_ADC1_Value)
    Hal_Get_ADC2_Value                       0x08007d15   Thumb Code     6  hal_powmanage.o(i.Hal_Get_ADC2_Value)
    Hal_Get_ChagFull_State                   0x08007d21   Thumb Code    22  hal_powmanage.o(i.Hal_Get_ChagFull_State)
    Hal_Get_MagKey_State                     0x08007d3d   Thumb Code    22  hal_keyled.o(i.Hal_Get_MagKey_State)
    Hal_Get_SideKey_State                    0x08007d59   Thumb Code    20  hal_keyled.o(i.Hal_Get_SideKey_State)
    Hal_Get_SlideKey_State                   0x08007d71   Thumb Code    18  hal_keyled.o(i.Hal_Get_SlideKey_State)
    Hal_Get_USB_In_State                     0x08007d89   Thumb Code    22  hal_powmanage.o(i.Hal_Get_USB_In_State)
    Hal_Key_Init                             0x08007da5   Thumb Code    76  hal_keyled.o(i.Hal_Key_Init)
    Hal_Led_Init                             0x08007df9   Thumb Code   146  hal_keyled.o(i.Hal_Led_Init)
    Hal_Pow_Switch_Init                      0x08007e99   Thumb Code   140  hal_powmanage.o(i.Hal_Pow_Switch_Init)
    Hal_RTC_init                             0x08007f31   Thumb Code   118  hal_sleep.o(i.Hal_RTC_init)
    Hal_Start_VBat_ADC_Convert               0x08007fb1   Thumb Code    28  hal_powmanage.o(i.Hal_Start_VBat_ADC_Convert)
    Hal_Start_VSloar_ADC_Convert             0x08007fd1   Thumb Code    28  hal_powmanage.o(i.Hal_Start_VSloar_ADC_Convert)
    Hal_System_Clock_Init                    0x08007ff1   Thumb Code   230  hal_init.o(i.Hal_System_Clock_Init)
    Hal_Uart1_Deinit                         0x080080f5   Thumb Code    26  hal_uart.o(i.Hal_Uart1_Deinit)
    Hal_Uart1_Init                           0x08008119   Thumb Code   146  hal_uart.o(i.Hal_Uart1_Init)
    Hal_Uart2_Init                           0x080081bd   Thumb Code   146  hal_uart.o(i.Hal_Uart2_Init)
    Hal_Uart3_Deinit                         0x08008261   Thumb Code    26  hal_uart.o(i.Hal_Uart3_Deinit)
    Hal_Uart3_Init                           0x08008285   Thumb Code   154  hal_uart.o(i.Hal_Uart3_Init)
    Hal_Uart4_Deinit                         0x08008331   Thumb Code    26  hal_uart.o(i.Hal_Uart4_Deinit)
    Hal_Uart4_Init                           0x08008355   Thumb Code   146  hal_uart.o(i.Hal_Uart4_Init)
    Heartbeat_BAT1_Led                       0x080083f9   Thumb Code    36  hal_keyled.o(i.Heartbeat_BAT1_Led)
    Heartbeat_BAT2_Led                       0x08008421   Thumb Code    36  hal_keyled.o(i.Heartbeat_BAT2_Led)
    Heartbeat_BAT3_Led                       0x08008449   Thumb Code    36  hal_keyled.o(i.Heartbeat_BAT3_Led)
    Heartbeat_BAT4_Led                       0x08008471   Thumb Code    32  hal_keyled.o(i.Heartbeat_BAT4_Led)
    Key_Start_Move_Mode                      0x08008495   Thumb Code    22  bsp_keyled.o(i.Key_Start_Move_Mode)
    Key_Start_Normal_Mode                    0x080084c5   Thumb Code    22  bsp_keyled.o(i.Key_Start_Normal_Mode)
    Key_Start_PULL_Mode                      0x080084f5   Thumb Code    22  bsp_keyled.o(i.Key_Start_PULL_Mode)
    Key_Start_SOS_Mode                       0x08008525   Thumb Code    22  bsp_keyled.o(i.Key_Start_SOS_Mode)
    Log_str_printf                           0x08008551   Thumb Code    16  bsp_log.o(i.Log_str_printf)
    Mcu_Hal_Init                             0x08008565   Thumb Code    60  hal_init.o(i.Mcu_Hal_Init)
    Port_Checksum                            0x080085a1   Thumb Code    26  bsp_config.o(i.Port_Checksum)
    Port_Rxdata_deal                         0x080085bd   Thumb Code   114  bsp_config.o(i.Port_Rxdata_deal)
    Port_Tx_Cmd_Pack                         0x08008649   Thumb Code    70  bsp_config.o(i.Port_Tx_Cmd_Pack)
    RTC_Fre_Calib                            0x08008695   Thumb Code    32  hal_sleep.o(i.RTC_Fre_Calib)
    RTC_Printf                               0x080086b9   Thumb Code    26  hal_sleep.o(i.RTC_Printf)
    Rdss_Check_Xor                           0x080086f5   Thumb Code    24  bsp_rdssparse.o(i.Rdss_Check_Xor)
    SlotBranch100ms                          0x0800870d   Thumb Code    46  sys_timerun.o(i.SlotBranch100ms)
    SlotBranch10ms                           0x08008741   Thumb Code    62  sys_timerun.o(i.SlotBranch10ms)
    SlotBranch1s                             0x08008785   Thumb Code   106  sys_timerun.o(i.SlotBranch1s)
    SysTick_Handler                          0x08008811   Thumb Code    14  sys_timerun.o(i.SysTick_Handler)
    Sys_Start_Charge_Mode                    0x08008825   Thumb Code    30  bsp_keyled.o(i.Sys_Start_Charge_Mode)
    Sys_Stop_Charge_Mode                     0x08008861   Thumb Code    22  bsp_keyled.o(i.Sys_Stop_Charge_Mode)
    SystemInit                               0x08008891   Thumb Code    92  system_at32f435_437.o(i.SystemInit)
    TMR5_GLOBAL_IRQHandler                   0x080088fd   Thumb Code    76  hal_sleep.o(i.TMR5_GLOBAL_IRQHandler)
    TimeTurn                                 0x08008951   Thumb Code   106  api_common.o(i.TimeTurn)
    Time_Routime                             0x080089c1   Thumb Code    20  sys_timerun.o(i.Time_Routime)
    UART4_IRQHandler                         0x080089d9   Thumb Code    64  bsp_uartrec.o(i.UART4_IRQHandler)
    USART1_IRQHandler                        0x08008a21   Thumb Code    64  bsp_uartrec.o(i.USART1_IRQHandler)
    USART2_IRQHandler                        0x08008a69   Thumb Code    64  bsp_uartrec.o(i.USART2_IRQHandler)
    USART3_IRQHandler                        0x08008ab1   Thumb Code    64  bsp_uartrec.o(i.USART3_IRQHandler)
    __0printf                                0x08008af9   Thumb Code    22  printfa.o(i.__0printf)
    __1printf                                0x08008af9   Thumb Code     0  printfa.o(i.__0printf)
    __2printf                                0x08008af9   Thumb Code     0  printfa.o(i.__0printf)
    __c89printf                              0x08008af9   Thumb Code     0  printfa.o(i.__0printf)
    printf                                   0x08008af9   Thumb Code     0  printfa.o(i.__0printf)
    __0sprintf                               0x08008b19   Thumb Code    34  printfa.o(i.__0sprintf)
    __1sprintf                               0x08008b19   Thumb Code     0  printfa.o(i.__0sprintf)
    __2sprintf                               0x08008b19   Thumb Code     0  printfa.o(i.__0sprintf)
    __c89sprintf                             0x08008b19   Thumb Code     0  printfa.o(i.__0sprintf)
    sprintf                                  0x08008b19   Thumb Code     0  printfa.o(i.__0sprintf)
    __ARM_fpclassify                         0x08008b41   Thumb Code    48  fpclassify.o(i.__ARM_fpclassify)
    __hardfp_asin                            0x08008b71   Thumb Code   770  asin.o(i.__hardfp_asin)
    __hardfp_atof                            0x08008ed1   Thumb Code    44  atof.o(i.__hardfp_atof)
    __hardfp_cos                             0x08008f09   Thumb Code   180  cos.o(i.__hardfp_cos)
    __hardfp_sqrt                            0x08008fd1   Thumb Code   122  sqrt.o(i.__hardfp_sqrt)
    __ieee754_rem_pio2                       0x08009051   Thumb Code   938  rred.o(i.__ieee754_rem_pio2)
    __kernel_cos                             0x08009489   Thumb Code   322  cos_i.o(i.__kernel_cos)
    __kernel_poly                            0x080095f9   Thumb Code   248  poly.o(i.__kernel_poly)
    __kernel_sin                             0x080096f1   Thumb Code   280  sin_i.o(i.__kernel_sin)
    __mathlib_dbl_infnan                     0x08009821   Thumb Code    20  dunder.o(i.__mathlib_dbl_infnan)
    __mathlib_dbl_invalid                    0x08009839   Thumb Code    24  dunder.o(i.__mathlib_dbl_invalid)
    __mathlib_dbl_underflow                  0x08009859   Thumb Code    24  dunder.o(i.__mathlib_dbl_underflow)
    __read_errno                             0x08009879   Thumb Code     6  errno.o(i.__read_errno)
    __scatterload_copy                       0x08009885   Thumb Code    14  handlers.o(i.__scatterload_copy)
    __scatterload_null                       0x08009893   Thumb Code     2  handlers.o(i.__scatterload_null)
    __scatterload_zeroinit                   0x08009895   Thumb Code    14  handlers.o(i.__scatterload_zeroinit)
    __set_errno                              0x080098a5   Thumb Code     6  errno.o(i.__set_errno)
    _is_digit                                0x08009a35   Thumb Code    14  scanf_fp.o(i._is_digit)
    adc_base_config                          0x0800a17d   Thumb Code    44  at32f435_437_adc.o(i.adc_base_config)
    adc_base_default_para_init               0x0800a1a9   Thumb Code    14  at32f435_437_adc.o(i.adc_base_default_para_init)
    adc_common_config                        0x0800a1b9   Thumb Code   126  at32f435_437_adc.o(i.adc_common_config)
    adc_common_default_para_init             0x0800a23d   Thumb Code    18  at32f435_437_adc.o(i.adc_common_default_para_init)
    adc_enable                               0x0800a24f   Thumb Code    10  at32f435_437_adc.o(i.adc_enable)
    adc_ordinary_channel_set                 0x0800a259   Thumb Code   116  at32f435_437_adc.o(i.adc_ordinary_channel_set)
    adc_ordinary_conversion_data_get         0x0800a2cd   Thumb Code     6  at32f435_437_adc.o(i.adc_ordinary_conversion_data_get)
    adc_ordinary_software_trigger_enable     0x0800a2d3   Thumb Code    10  at32f435_437_adc.o(i.adc_ordinary_software_trigger_enable)
    app_clear_sys_status                     0x0800a2dd   Thumb Code   160  hal_flash.o(i.app_clear_sys_status)
    convert_str_to_hex                       0x0800a381   Thumb Code    72  api_common.o(i.convert_str_to_hex)
    convert_str_to_uint32                    0x0800a3c9   Thumb Code    50  api_common.o(i.convert_str_to_uint32)
    crm_ahb_div_set                          0x0800a3fd   Thumb Code    12  at32f435_437_crm.o(i.crm_ahb_div_set)
    crm_apb1_div_set                         0x0800a40d   Thumb Code    12  at32f435_437_crm.o(i.crm_apb1_div_set)
    crm_apb2_div_set                         0x0800a41d   Thumb Code    12  at32f435_437_crm.o(i.crm_apb2_div_set)
    crm_auto_step_mode_enable                0x0800a42d   Thumb Code    22  at32f435_437_crm.o(i.crm_auto_step_mode_enable)
    crm_battery_powered_domain_reset         0x0800a449   Thumb Code    12  at32f435_437_crm.o(i.crm_battery_powered_domain_reset)
    crm_clock_source_enable                  0x0800a459   Thumb Code    62  at32f435_437_crm.o(i.crm_clock_source_enable)
    crm_clocks_freq_get                      0x0800a49d   Thumb Code   164  at32f435_437_crm.o(i.crm_clocks_freq_get)
    crm_ertc_clock_enable                    0x0800a555   Thumb Code    12  at32f435_437_crm.o(i.crm_ertc_clock_enable)
    crm_ertc_clock_select                    0x0800a565   Thumb Code    26  at32f435_437_crm.o(i.crm_ertc_clock_select)
    crm_flag_get                             0x0800a585   Thumb Code    30  at32f435_437_crm.o(i.crm_flag_get)
    crm_hext_stable_wait                     0x0800a5a9   Thumb Code    40  at32f435_437_crm.o(i.crm_hext_stable_wait)
    crm_periph_clock_enable                  0x0800a5d1   Thumb Code    38  at32f435_437_crm.o(i.crm_periph_clock_enable)
    crm_periph_reset                         0x0800a5fd   Thumb Code    38  at32f435_437_crm.o(i.crm_periph_reset)
    crm_pll_config                           0x0800a629   Thumb Code    52  at32f435_437_crm.o(i.crm_pll_config)
    crm_reset                                0x0800a661   Thumb Code    74  at32f435_437_crm.o(i.crm_reset)
    crm_sysclk_switch                        0x0800a6b9   Thumb Code    52  at32f435_437_crm.o(i.crm_sysclk_switch)
    crm_sysclk_switch_status_get             0x0800a6f1   Thumb Code    10  at32f435_437_crm.o(i.crm_sysclk_switch_status_get)
    ertc_bcd_to_num                          0x0800a701   Thumb Code    18  at32f435_437_ertc.o(i.ertc_bcd_to_num)
    ertc_calendar_get                        0x0800a715   Thumb Code   108  at32f435_437_ertc.o(i.ertc_calendar_get)
    ertc_date_set                            0x0800a785   Thumb Code   116  at32f435_437_ertc.o(i.ertc_date_set)
    ertc_divider_set                         0x0800a7fd   Thumb Code    60  at32f435_437_ertc.o(i.ertc_divider_set)
    ertc_flag_clear                          0x0800a83d   Thumb Code    22  at32f435_437_ertc.o(i.ertc_flag_clear)
    ertc_hour_mode_set                       0x0800a859   Thumb Code    52  at32f435_437_ertc.o(i.ertc_hour_mode_set)
    ertc_init_mode_enter                     0x0800a891   Thumb Code    46  at32f435_437_ertc.o(i.ertc_init_mode_enter)
    ertc_interrupt_flag_get                  0x0800a8c5   Thumb Code   116  at32f435_437_ertc.o(i.ertc_interrupt_flag_get)
    ertc_num_to_bcd                          0x0800a93d   Thumb Code    22  at32f435_437_ertc.o(i.ertc_num_to_bcd)
    ertc_reset                               0x0800a955   Thumb Code   116  at32f435_437_ertc.o(i.ertc_reset)
    ertc_time_set                            0x0800a9d1   Thumb Code   116  at32f435_437_ertc.o(i.ertc_time_set)
    ertc_wait_update                         0x0800aa49   Thumb Code    40  at32f435_437_ertc.o(i.ertc_wait_update)
    ertc_write_protect_disable               0x0800aa75   Thumb Code    12  at32f435_437_ertc.o(i.ertc_write_protect_disable)
    exint_flag_clear                         0x0800aa85   Thumb Code     6  at32f435_437_exint.o(i.exint_flag_clear)
    exint_interrupt_flag_get                 0x0800aa91   Thumb Code    24  at32f435_437_exint.o(i.exint_interrupt_flag_get)
    fabs                                     0x0800aaad   Thumb Code    24  fabs.o(i.fabs)
    flash_bank1_operation_status_get         0x0800aac5   Thumb Code    34  at32f435_437_flash.o(i.flash_bank1_operation_status_get)
    flash_bank1_operation_wait_for           0x0800aaed   Thumb Code    34  at32f435_437_flash.o(i.flash_bank1_operation_wait_for)
    flash_bank2_operation_status_get         0x0800ab11   Thumb Code    34  at32f435_437_flash.o(i.flash_bank2_operation_status_get)
    flash_bank2_operation_wait_for           0x0800ab39   Thumb Code    34  at32f435_437_flash.o(i.flash_bank2_operation_wait_for)
    flash_sector_erase                       0x0800ab5d   Thumb Code   100  at32f435_437_flash.o(i.flash_sector_erase)
    flash_unlock                             0x0800abc9   Thumb Code    20  at32f435_437_flash.o(i.flash_unlock)
    flash_word_program                       0x0800abe9   Thumb Code    80  at32f435_437_flash.o(i.flash_word_program)
    fputc                                    0x0800ac41   Thumb Code    30  hal_uart.o(i.fputc)
    gpio_bits_reset                          0x0800ac65   Thumb Code     4  at32f435_437_gpio.o(i.gpio_bits_reset)
    gpio_bits_set                            0x0800ac69   Thumb Code     4  at32f435_437_gpio.o(i.gpio_bits_set)
    gpio_bits_write                          0x0800ac6d   Thumb Code    10  at32f435_437_gpio.o(i.gpio_bits_write)
    gpio_default_para_init                   0x0800ac77   Thumb Code    20  at32f435_437_gpio.o(i.gpio_default_para_init)
    gpio_init                                0x0800ac8b   Thumb Code   100  at32f435_437_gpio.o(i.gpio_init)
    gpio_input_data_bit_read                 0x0800acef   Thumb Code    14  at32f435_437_gpio.o(i.gpio_input_data_bit_read)
    gpio_output_data_bit_read                0x0800acfd   Thumb Code    14  at32f435_437_gpio.o(i.gpio_output_data_bit_read)
    gpio_pin_mux_config                      0x0800ad0b   Thumb Code    48  at32f435_437_gpio.o(i.gpio_pin_mux_config)
    id_write                                 0x0800ad3b   Thumb Code   100  bsp_config.o(i.id_write)
    infor_get                                0x0800ada1   Thumb Code    18  bsp_config.o(i.infor_get)
    infor_rep                                0x0800adb9   Thumb Code    98  bsp_config.o(i.infor_rep)
    lick_frequency_get                       0x0800ae21   Thumb Code   160  hal_sleep.o(i.lick_frequency_get)
    lm_fifo_add_node_impolite                0x0800aed1   Thumb Code    56  api_fifo.o(i.lm_fifo_add_node_impolite)
    lm_fifo_delete_node                      0x0800af09   Thumb Code    32  api_fifo.o(i.lm_fifo_delete_node)
    lm_fifo_delete_node_for_ISR              0x0800af29   Thumb Code    32  api_fifo.o(i.lm_fifo_delete_node_for_ISR)
    lm_fifo_get_node                         0x0800af49   Thumb Code    24  api_fifo.o(i.lm_fifo_get_node)
    lm_fifo_init                             0x0800af61   Thumb Code    38  api_fifo.o(i.lm_fifo_init)
    lm_fifo_is_full                          0x0800af87   Thumb Code    28  api_fifo.o(i.lm_fifo_is_full)
    main                                     0x0800afa3   Thumb Code    30  main.o(i.main)
    nvic_irq_disable                         0x0800afc1   Thumb Code    34  at32f435_437_misc.o(i.nvic_irq_disable)
    nvic_irq_enable                          0x0800afe5   Thumb Code   118  at32f435_437_misc.o(i.nvic_irq_enable)
    nvic_priority_group_config               0x0800b061   Thumb Code    26  at32f435_437_misc.o(i.nvic_priority_group_config)
    nvic_vector_table_set                    0x0800b085   Thumb Code    12  at32f435_437_misc.o(i.nvic_vector_table_set)
    open_closs_gnss                          0x0800b099   Thumb Code    98  bsp_config.o(i.open_closs_gnss)
    open_closs_rdss                          0x0800b105   Thumb Code   110  bsp_config.o(i.open_closs_rdss)
    ota_start_rep                            0x0800b17d   Thumb Code    66  bsp_config.o(i.ota_start_rep)
    pwc_battery_powered_domain_access        0x0800b1c9   Thumb Code    12  at32f435_437_pwc.o(i.pwc_battery_powered_domain_access)
    sqrt                                     0x0800b1d9   Thumb Code   110  sqrt.o(i.sqrt)
    system_core_clock_update                 0x0800b249   Thumb Code   130  system_at32f435_437.o(i.system_core_clock_update)
    systick_clock_source_config              0x0800b2e5   Thumb Code    24  at32f435_437_misc.o(i.systick_clock_source_config)
    tmr_channel_value_get                    0x0800b2fd   Thumb Code    40  at32f435_437_tmr.o(i.tmr_channel_value_get)
    tmr_counter_enable                       0x0800b325   Thumb Code    10  at32f435_437_tmr.o(i.tmr_counter_enable)
    tmr_div_value_set                        0x0800b32f   Thumb Code     4  at32f435_437_tmr.o(i.tmr_div_value_set)
    tmr_event_sw_trigger                     0x0800b333   Thumb Code     8  at32f435_437_tmr.o(i.tmr_event_sw_trigger)
    tmr_flag_clear                           0x0800b33b   Thumb Code     6  at32f435_437_tmr.o(i.tmr_flag_clear)
    tmr_input_channel_divider_set            0x0800b341   Thumb Code    50  at32f435_437_tmr.o(i.tmr_input_channel_divider_set)
    tmr_input_channel_init                   0x0800b373   Thumb Code   272  at32f435_437_tmr.o(i.tmr_input_channel_init)
    tmr_interrupt_enable                     0x0800b483   Thumb Code    22  at32f435_437_tmr.o(i.tmr_interrupt_enable)
    tmr_interrupt_flag_get                   0x0800b499   Thumb Code    20  at32f435_437_tmr.o(i.tmr_interrupt_flag_get)
    tmr_iremap_config                        0x0800b4ad   Thumb Code    30  at32f435_437_tmr.o(i.tmr_iremap_config)
    tmr_reset                                0x0800b4d1   Thumb Code   224  at32f435_437_tmr.o(i.tmr_reset)
    uart2_tx_string                          0x0800b5f1   Thumb Code    46  hal_uart.o(i.uart2_tx_string)
    uart3_tx_string                          0x0800b625   Thumb Code    46  hal_uart.o(i.uart3_tx_string)
    uart4_tx_string                          0x0800b659   Thumb Code    46  hal_uart.o(i.uart4_tx_string)
    usart_data_receive                       0x0800b68d   Thumb Code     6  at32f435_437_usart.o(i.usart_data_receive)
    usart_data_transmit                      0x0800b693   Thumb Code     8  at32f435_437_usart.o(i.usart_data_transmit)
    usart_enable                             0x0800b69b   Thumb Code    10  at32f435_437_usart.o(i.usart_enable)
    usart_flag_clear                         0x0800b6a5   Thumb Code    16  at32f435_437_usart.o(i.usart_flag_clear)
    usart_flag_get                           0x0800b6b5   Thumb Code    10  at32f435_437_usart.o(i.usart_flag_get)
    usart_init                               0x0800b6c1   Thumb Code   124  at32f435_437_usart.o(i.usart_init)
    usart_interrupt_enable                   0x0800b745   Thumb Code    30  at32f435_437_usart.o(i.usart_interrupt_enable)
    usart_interrupt_flag_get                 0x0800b763   Thumb Code   140  at32f435_437_usart.o(i.usart_interrupt_flag_get)
    usart_receiver_enable                    0x0800b7ef   Thumb Code    10  at32f435_437_usart.o(i.usart_receiver_enable)
    usart_transmit_receive_pin_swap          0x0800b7f9   Thumb Code    10  at32f435_437_usart.o(i.usart_transmit_receive_pin_swap)
    usart_transmitter_enable                 0x0800b803   Thumb Code    10  at32f435_437_usart.o(i.usart_transmitter_enable)
    versions_rep                             0x0800b80d   Thumb Code    24  bsp_config.o(i.versions_rep)
    BufBAT                                   0x0800b860   Data         200  bsp_batvol.o(.constdata)
    tGNSSType                                0x0800b928   Data          33  bsp_gnssparse.o(.constdata)
    tRDSSType                                0x0800b949   Data          22  bsp_rdssparse.o(.constdata)
    __ctype_categories                       0x0800baec   Data          64  ctype_c.o(.constdata)
    Region$$Table$$Base                      0x0800be8c   Number         0  anon$$obj.o(Region$$Table)
    Region$$Table$$Limit                     0x0800beac   Number         0  anon$$obj.o(Region$$Table)
    system_core_clock                        0x20000000   Data           4  system_at32f435_437.o(.data)
    __stdout                                 0x20000004   Data           4  hal_uart.o(.data)
    systick_index                            0x20000008   Data           4  hal_sleep.o(.data)
    lick_freq                                0x2000000c   Data           4  hal_sleep.o(.data)
    capture_number                           0x20000010   Data           4  hal_sleep.o(.data)
    period_value                             0x20000014   Data           4  hal_sleep.o(.data)
    tmp_c4                                   0x20000018   Data           4  hal_sleep.o(.data)
    timertc                                  0x2000001c   Data           8  hal_sleep.o(.data)
    Jump_To_Application                      0x20000024   Data           4  hal_flash.o(.data)
    u8MagKey_State                           0x20000028   Data           1  bsp_keyled.o(.data)
    u8PowOnState                             0x20000029   Data           1  bsp_keyled.o(.data)
    u16MagKey_Count                          0x2000002a   Data           2  bsp_keyled.o(.data)
    u16PercentB                              0x2000002c   Data           2  bsp_keyled.o(.data)
    tVbatChag_Ctrl                           0x2000002e   Data           6  bsp_keyled.o(.data)
    tBatVolCtrl                              0x20000034   Data           8  bsp_batvol.o(.data)
    u16LocaTempNum                           0x2000003c   Data           2  bsp_gnssparse.o(.data)
    u16LocaValidNum                          0x2000003e   Data           2  bsp_gnssparse.o(.data)
    u16LocaValidNum_B                        0x20000040   Data           2  bsp_gnssparse.o(.data)
    u8UartMode                               0x20000042   Data           1  bsp_config.o(.data)
    u81msTime                                0x20000044   Data           1  sys_timerun.o(.data)
    u810msBranch                             0x20000045   Data           1  sys_timerun.o(.data)
    u8100msBranch                            0x20000046   Data           1  sys_timerun.o(.data)
    u81sBranch                               0x20000047   Data           1  sys_timerun.o(.data)
    s_u32SysTickTime                         0x20000048   Data           4  sys_timerun.o(.data)
    tSysState_Ctrl                           0x20000050   Data          12  bsp_keyled.o(.bss)
    uart1_rx_fifo_ctrl                       0x2000005c   Data          20  bsp_uartrec.o(.bss)
    uart2_rx_fifo_ctrl                       0x20000070   Data          20  bsp_uartrec.o(.bss)
    uart3_rx_fifo_ctrl                       0x20000084   Data          20  bsp_uartrec.o(.bss)
    uart4_rx_fifo_ctrl                       0x20000098   Data          20  bsp_uartrec.o(.bss)
    uart1_rx_buf                             0x200000ac   Data         500  bsp_uartrec.o(.bss)
    uart2_rx_buf                             0x200002a0   Data         500  bsp_uartrec.o(.bss)
    uart3_rx_buf                             0x20000494   Data         500  bsp_uartrec.o(.bss)
    uart4_rx_buf                             0x20000688   Data         500  bsp_uartrec.o(.bss)
    tADCFilter                               0x2000087c   Data          20  bsp_batvol.o(.bss)
    tGNSSRxCtrl                              0x20000890   Data         204  bsp_gnssparse.o(.bss)
    tRMCParseData                            0x20000960   Data          56  bsp_gnssparse.o(.bss)
    tCharRMCdata                             0x20000998   Data          63  bsp_gnssparse.o(.bss)
    tGNSSdataCtr                             0x200009d8   Data          40  bsp_gnssparse.o(.bss)
    tGNSSdataTmp                             0x20000a00   Data          40  bsp_gnssparse.o(.bss)
    Buf_GnssSplit                            0x20000a28   Data         200  bsp_gnssparse.o(.bss)
    tRdssSignal                              0x20000af0   Data          40  bsp_rdssparse.o(.bss)
    tRDSSRxCtrl                              0x20000b18   Data         204  bsp_rdssparse.o(.bss)
    Buf_RdssSplit                            0x20000be4   Data         200  bsp_rdssparse.o(.bss)
    tSendCtrl                                0x20000cb0   Data         408  bsp_rdsssend.o(.bss)
    SendBuf                                  0x20000e48   Data        2000  bsp_rdsssend.o(.bss)
    u8TxPORTBuf                              0x20001618   Data         100  bsp_config.o(.bss)
    tInforGet                                0x2000167c   Data          16  bsp_config.o(.bss)
    tPortRxCtrl                              0x2000168c   Data         101  bsp_config.o(.bss)
    __initial_sp                             0x20001af8   Data           0  startup_at32f435_437.o(STACK)



==============================================================================

Memory Map of the image

  Image Entry point : 0x0800420d

  Load Region LR_IROM1 (Base: 0x08004000, Size: 0x00007efc, Max: 0x000fb000, ABSOLUTE)

    Execution Region ER_IROM1 (Exec base: 0x08004000, Load base: 0x08004000, Size: 0x00007eac, Max: 0x000fb000, ABSOLUTE)

    Exec Addr    Load Addr    Size         Type   Attr      Idx    E Section Name        Object

    0x08004000   0x08004000   0x0000020c   Data   RO          308    RESET               startup_at32f435_437.o
    0x0800420c   0x0800420c   0x00000000   Code   RO         4196  * .ARM.Collect$$$$00000000  mc_w.l(entry.o)
    0x0800420c   0x0800420c   0x00000004   Code   RO         4535    .ARM.Collect$$$$00000001  mc_w.l(entry2.o)
    0x08004210   0x08004210   0x00000004   Code   RO         4538    .ARM.Collect$$$$00000004  mc_w.l(entry5.o)
    0x08004214   0x08004214   0x00000000   Code   RO         4540    .ARM.Collect$$$$00000008  mc_w.l(entry7b.o)
    0x08004214   0x08004214   0x00000000   Code   RO         4542    .ARM.Collect$$$$0000000A  mc_w.l(entry8b.o)
    0x08004214   0x08004214   0x00000008   Code   RO         4543    .ARM.Collect$$$$0000000B  mc_w.l(entry9a.o)
    0x0800421c   0x0800421c   0x00000000   Code   RO         4545    .ARM.Collect$$$$0000000D  mc_w.l(entry10a.o)
    0x0800421c   0x0800421c   0x00000000   Code   RO         4547    .ARM.Collect$$$$0000000F  mc_w.l(entry11a.o)
    0x0800421c   0x0800421c   0x00000004   Code   RO         4536    .ARM.Collect$$$$00002712  mc_w.l(entry2.o)
    0x08004220   0x08004220   0x00000024   Code   RO          309    .text               startup_at32f435_437.o
    0x08004244   0x08004244   0x00000062   Code   RO         4199    .text               mc_w.l(uldiv.o)
    0x080042a6   0x080042a6   0x00000002   PAD
    0x080042a8   0x080042a8   0x000000a8   Code   RO         4201    .text               mc_w.l(mktime.o)
    0x08004350   0x08004350   0x00000024   Code   RO         4204    .text               mc_w.l(memcpya.o)
    0x08004374   0x08004374   0x00000024   Code   RO         4206    .text               mc_w.l(memseta.o)
    0x08004398   0x08004398   0x0000000e   Code   RO         4208    .text               mc_w.l(strlen.o)
    0x080043a6   0x080043a6   0x0000001a   Code   RO         4210    .text               mc_w.l(memcmp.o)
    0x080043c0   0x080043c0   0x00000038   Code   RO         4475    .text               mc_w.l(__0sscanf.o)
    0x080043f8   0x080043f8   0x0000014c   Code   RO         4477    .text               mc_w.l(_scanf_int.o)
    0x08004544   0x08004544   0x0000014e   Code   RO         4479    .text               mf_w.l(dadd.o)
    0x08004692   0x08004692   0x000000e4   Code   RO         4481    .text               mf_w.l(dmul.o)
    0x08004776   0x08004776   0x000000de   Code   RO         4483    .text               mf_w.l(ddiv.o)
    0x08004854   0x08004854   0x0000001a   Code   RO         4485    .text               mf_w.l(dfltui.o)
    0x0800486e   0x0800486e   0x00000032   Code   RO         4487    .text               mf_w.l(dfixui.o)
    0x080048a0   0x080048a0   0x00000026   Code   RO         4489    .text               mf_w.l(f2d.o)
    0x080048c6   0x080048c6   0x00000002   PAD
    0x080048c8   0x080048c8   0x00000030   Code   RO         4491    .text               mf_w.l(cdcmple.o)
    0x080048f8   0x080048f8   0x00000030   Code   RO         4493    .text               mf_w.l(cdrcmple.o)
    0x08004928   0x08004928   0x00000038   Code   RO         4495    .text               mf_w.l(d2f.o)
    0x08004960   0x08004960   0x0000002c   Code   RO         4549    .text               mc_w.l(uidiv.o)
    0x0800498c   0x0800498c   0x0000001e   Code   RO         4551    .text               mc_w.l(llshl.o)
    0x080049aa   0x080049aa   0x00000020   Code   RO         4553    .text               mc_w.l(llushr.o)
    0x080049ca   0x080049ca   0x00000024   Code   RO         4555    .text               mc_w.l(llsshr.o)
    0x080049ee   0x080049ee   0x00000002   PAD
    0x080049f0   0x080049f0   0x0000008c   Code   RO         4560    .text               mc_w.l(localtime_i.o)
    0x08004a7c   0x08004a7c   0x0000001c   Code   RO         4570    .text               mc_w.l(_chval.o)
    0x08004a98   0x08004a98   0x00000028   Code   RO         4572    .text               mc_w.l(scanf_char.o)
    0x08004ac0   0x08004ac0   0x00000040   Code   RO         4574    .text               mc_w.l(_sgetc.o)
    0x08004b00   0x08004b00   0x0000009c   Code   RO         4576    .text               mc_w.l(strtod.o)
    0x08004b9c   0x08004b9c   0x00000000   Code   RO         4578    .text               mc_w.l(iusefp.o)
    0x08004b9c   0x08004b9c   0x0000006e   Code   RO         4579    .text               mf_w.l(fepilogue.o)
    0x08004c0a   0x08004c0a   0x000000ba   Code   RO         4581    .text               mf_w.l(depilogue.o)
    0x08004cc4   0x08004cc4   0x000000a2   Code   RO         4585    .text               mf_w.l(dsqrt.o)
    0x08004d66   0x08004d66   0x00000030   Code   RO         4587    .text               mf_w.l(dfixul.o)
    0x08004d96   0x08004d96   0x00000002   PAD
    0x08004d98   0x08004d98   0x00000024   Code   RO         4589    .text               mc_w.l(init.o)
    0x08004dbc   0x08004dbc   0x0000000a   Code   RO         4591    .text               mc_w.l(isspace_c.o)
    0x08004dc6   0x08004dc6   0x00000002   PAD
    0x08004dc8   0x08004dc8   0x0000032c   Code   RO         4593    .text               mc_w.l(_scanf.o)
    0x080050f4   0x080050f4   0x00000360   Code   RO         4595    .text               mc_w.l(scanf_fp.o)
    0x08005454   0x08005454   0x00000022   Code   RO         4599    .text               mf_w.l(dflti.o)
    0x08005476   0x08005476   0x0000003e   Code   RO         4601    .text               mf_w.l(dfixi.o)
    0x080054b4   0x080054b4   0x00000028   Code   RO         4603    .text               mc_w.l(ctype_c.o)
    0x080054dc   0x080054dc   0x00000018   Code   RO         4606    .text               mf_w.l(dfltul.o)
    0x080054f4   0x080054f4   0x0000006c   Code   RO         3514    i.ADConvert         bsp_batvol.o
    0x08005560   0x08005560   0x00000018   Code   RO         3819    i.API_Check_Xor     bsp_rdsssend.o
    0x08005578   0x08005578   0x00000128   Code   RO         3820    i.API_Funftoa       bsp_rdsssend.o
    0x080056a0   0x080056a0   0x0000002c   Code   RO         3821    i.API_Hex8_To_String  bsp_rdsssend.o
    0x080056cc   0x080056cc   0x00000008   Code   RO         3635    i.Api_Acc_Speed     bsp_gnssparse.o
    0x080056d4   0x080056d4   0x0000013c   Code   RO         3636    i.Api_Loca_Distance  bsp_gnssparse.o
    0x08005810   0x08005810   0x00000080   Code   RO         3637    i.Api_Location_Data_Turn  bsp_gnssparse.o
    0x08005890   0x08005890   0x00000032   Code   RO         3515    i.Arithmetic_Average  bsp_batvol.o
    0x080058c2   0x080058c2   0x00000002   PAD
    0x080058c4   0x080058c4   0x00000010   Code   RO         3516    i.Bps_Start_Always_Updata_BatVol_Percent  bsp_batvol.o
    0x080058d4   0x080058d4   0x00000014   Code   RO         3517    i.Bps_Start_Once_Time_Updata_BatVol_Percent  bsp_batvol.o
    0x080058e8   0x080058e8   0x00000628   Code   RO         3822    i.Bsp_Add_Loca_Queue  bsp_rdsssend.o
    0x08005f10   0x08005f10   0x0000004c   Code   RO         3823    i.Bsp_BDS_Data_Send  bsp_rdsssend.o
    0x08005f5c   0x08005f5c   0x00000068   Code   RO         3310    i.Bsp_Bat_Vol_Display  bsp_keyled.o
    0x08005fc4   0x08005fc4   0x0000001c   Code   RO         3311    i.Bsp_Error_Led_Display  bsp_keyled.o
    0x08005fe0   0x08005fe0   0x00000014   Code   RO         3824    i.Bsp_Float_to_Buf  bsp_rdsssend.o
    0x08005ff4   0x08005ff4   0x0000021c   Code   RO         3638    i.Bsp_GNSS_Data_Deal  bsp_gnssparse.o
    0x08006210   0x08006210   0x000000a0   Code   RO         3639    i.Bsp_GNSS_Data_Parse_String  bsp_gnssparse.o
    0x080062b0   0x080062b0   0x0000000e   Code   RO         3640    i.Bsp_GNSS_Init     bsp_gnssparse.o
    0x080062be   0x080062be   0x00000002   PAD
    0x080062c0   0x080062c0   0x00000028   Code   RO         3641    i.Bsp_GNSS_Parse_Init  bsp_gnssparse.o
    0x080062e8   0x080062e8   0x0000003c   Code   RO         3642    i.Bsp_GNSS_Split_Data_Init  bsp_gnssparse.o
    0x08006324   0x08006324   0x0000000c   Code   RO         3520    i.Bsp_Get_BatPercent  bsp_batvol.o
    0x08006330   0x08006330   0x00000014   Code   RO         3961    i.Bsp_Get_CardID    bsp_config.o
    0x08006344   0x08006344   0x00000140   Code   RO         3643    i.Bsp_Get_Location  bsp_gnssparse.o
    0x08006484   0x08006484   0x0000000c   Code   RO         3312    i.Bsp_Get_Pow_State  bsp_keyled.o
    0x08006490   0x08006490   0x0000002c   Code   RO         3523    i.Bsp_Get_SloarVol  bsp_batvol.o
    0x080064bc   0x080064bc   0x0000002c   Code   RO         3524    i.Bsp_Get_SloarVolFloat  bsp_batvol.o
    0x080064e8   0x080064e8   0x0000000c   Code   RO         3313    i.Bsp_Get_Sys_State  bsp_keyled.o
    0x080064f4   0x080064f4   0x00000078   Code   RO         3525    i.Bsp_Get_Temp      bsp_batvol.o
    0x0800656c   0x0800656c   0x0000000c   Code   RO         3526    i.Bsp_Get_Updata_Bat_Voltage_Once_State  bsp_batvol.o
    0x08006578   0x08006578   0x00000068   Code   RO         3644    i.Bsp_Gnss_Data_Check  bsp_gnssparse.o
    0x080065e0   0x080065e0   0x0000001c   Code   RO         3645    i.Bsp_Gnss_Loca_If_Vaild  bsp_gnssparse.o
    0x080065fc   0x080065fc   0x0000004c   Code   RO         3646    i.Bsp_Gnss_Parse_Byte  bsp_gnssparse.o
    0x08006648   0x08006648   0x00000174   Code   RO         3647    i.Bsp_Gnss_RMC_Data_Split  bsp_gnssparse.o
    0x080067bc   0x080067bc   0x00000070   Code   RO         3314    i.Bsp_MagKey_Scan   bsp_keyled.o
    0x0800682c   0x0800682c   0x000002e0   Code   RO         3826    i.Bsp_Nor_SOS_SendCtrl  bsp_rdsssend.o
    0x08006b0c   0x08006b0c   0x000000b0   Code   RO         3963    i.Bsp_Port_InforGet_Ctrl  bsp_config.o
    0x08006bbc   0x08006bbc   0x0000006c   Code   RO         3965    i.Bsp_Port_Parse_Byte  bsp_config.o
    0x08006c28   0x08006c28   0x00000254   Code   RO         3827    i.Bsp_Pull_SendCtrl  bsp_rdsssend.o
    0x08006e7c   0x08006e7c   0x000000e8   Code   RO         3738    i.Bsp_RDSS_Data_Parse_String  bsp_rdssparse.o
    0x08006f64   0x08006f64   0x0000000e   Code   RO         3739    i.Bsp_RDSS_Init     bsp_rdssparse.o
    0x08006f72   0x08006f72   0x00000002   PAD
    0x08006f74   0x08006f74   0x00000028   Code   RO         3740    i.Bsp_RDSS_Parse_Init  bsp_rdssparse.o
    0x08006f9c   0x08006f9c   0x0000000c   Code   RO         3741    i.Bsp_RDSS_Split_Data_Init  bsp_rdssparse.o
    0x08006fa8   0x08006fa8   0x00000068   Code   RO         3742    i.Bsp_Rdss_Data_Check  bsp_rdssparse.o
    0x08007010   0x08007010   0x000000c4   Code   RO         3743    i.Bsp_Rdss_ICP_Data_Split  bsp_rdssparse.o
    0x080070d4   0x080070d4   0x00000194   Code   RO         3744    i.Bsp_Rdss_PWI_Data_Split  bsp_rdssparse.o
    0x08007268   0x08007268   0x0000004c   Code   RO         3745    i.Bsp_Rdss_Parse_Byte  bsp_rdssparse.o
    0x080072b4   0x080072b4   0x00000014   Code   RO         3746    i.Bsp_Rdss_Signal_Is_Ok  bsp_rdssparse.o
    0x080072c8   0x080072c8   0x00000050   Code   RO         3747    i.Bsp_Rdss_Signal_Valid  bsp_rdssparse.o
    0x08007318   0x08007318   0x00000030   Code   RO         3828    i.Bsp_Rdss_Tx_CCICR  bsp_rdsssend.o
    0x08007348   0x08007348   0x0000018c   Code   RO         3829    i.Bsp_Rdss_Tx_CCTCQ  bsp_rdsssend.o
    0x080074d4   0x080074d4   0x0000000c   Code   RO         3966    i.Bsp_Read_ID       bsp_config.o
    0x080074e0   0x080074e0   0x00000024   Code   RO         3430    i.Bsp_Receive_Uart1_Fifo_Data  bsp_uartrec.o
    0x08007504   0x08007504   0x0000001c   Code   RO         3431    i.Bsp_Receive_Uart2_Fifo_Data  bsp_uartrec.o
    0x08007520   0x08007520   0x00000024   Code   RO         3432    i.Bsp_Receive_Uart3_Fifo_Data  bsp_uartrec.o
    0x08007544   0x08007544   0x00000024   Code   RO         3433    i.Bsp_Receive_Uart4_Fifo_Data  bsp_uartrec.o
    0x08007568   0x08007568   0x0000001c   Code   RO         3830    i.Bsp_Send_Get_CardID  bsp_rdsssend.o
    0x08007584   0x08007584   0x00000040   Code   RO         3831    i.Bsp_Start_Move_Mode  bsp_rdsssend.o
    0x080075c4   0x080075c4   0x00000040   Code   RO         3832    i.Bsp_Start_Normal_Mode  bsp_rdsssend.o
    0x08007604   0x08007604   0x00000040   Code   RO         3833    i.Bsp_Start_PULL_Mode  bsp_rdsssend.o
    0x08007644   0x08007644   0x00000040   Code   RO         3834    i.Bsp_Start_SOS_Mode  bsp_rdsssend.o
    0x08007684   0x08007684   0x000000fc   Code   RO         3316    i.Bsp_Sys_State_Ctrl  bsp_keyled.o
    0x08007780   0x08007780   0x00000054   Code   RO         3434    i.Bsp_Uart_Fifo_Init  bsp_uartrec.o
    0x080077d4   0x080077d4   0x000000a0   Code   RO         3528    i.Bsp_Updata_Bat_Percent  bsp_batvol.o
    0x08007874   0x08007874   0x000000f8   Code   RO         3317    i.Bsp_Vbat_Chag_Ctrl  bsp_keyled.o
    0x0800796c   0x0800796c   0x00000010   Code   RO         3967    i.Bsp_Write_Boot_Flag  bsp_config.o
    0x0800797c   0x0800797c   0x0000000c   Code   RO         3968    i.Bsp_Write_ID      bsp_config.o
    0x08007988   0x08007988   0x00000022   Code   RO         3109    i.ERTCAlarm_IRQHandler  hal_sleep.o
    0x080079aa   0x080079aa   0x00000018   Code   RO         2690    i.EXINT0_IRQHandler  hal_keyled.o
    0x080079c2   0x080079c2   0x00000018   Code   RO         2691    i.EXINT1_IRQHandler  hal_keyled.o
    0x080079da   0x080079da   0x00000018   Code   RO         2692    i.EXINT9_5_IRQHandler  hal_keyled.o
    0x080079f2   0x080079f2   0x00000004   Code   RO         3620    i.Fun_Bsp_Init      bsp_init.o
    0x080079f6   0x080079f6   0x00000002   PAD
    0x080079f8   0x080079f8   0x00000028   Code   RO            1    i.Fundtoa           api_common.o
    0x08007a20   0x08007a20   0x00000018   Code   RO         3648    i.Gnss_Check_Xor    bsp_gnssparse.o
    0x08007a38   0x08007a38   0x00000020   Code   RO         2892    i.Hal_ADC_Deinit    hal_powmanage.o
    0x08007a58   0x08007a58   0x000000e0   Code   RO         2893    i.Hal_BatVol_Init   hal_powmanage.o
    0x08007b38   0x08007b38   0x00000048   Code   RO         2693    i.Hal_Bat_Led_Display_Enable  hal_keyled.o
    0x08007b80   0x08007b80   0x00000022   Code   RO         2694    i.Hal_Bat_Led_Heartbeat  hal_keyled.o
    0x08007ba2   0x08007ba2   0x00000002   PAD
    0x08007ba4   0x08007ba4   0x00000060   Code   RO         2894    i.Hal_Charge_Init   hal_powmanage.o
    0x08007c04   0x08007c04   0x0000003c   Code   RO         2695    i.Hal_Error_Led_Display_Enable  hal_keyled.o
    0x08007c40   0x08007c40   0x000000a8   Code   RO         3236    i.Hal_Falsh_Jump    hal_flash.o
    0x08007ce8   0x08007ce8   0x00000004   Code   RO         3239    i.Hal_Flash_Read_Word  hal_flash.o
    0x08007cec   0x08007cec   0x0000001c   Code   RO         3241    i.Hal_Flash_Write_Word  hal_flash.o
    0x08007d08   0x08007d08   0x0000000c   Code   RO         2895    i.Hal_Get_ADC1_Value  hal_powmanage.o
    0x08007d14   0x08007d14   0x0000000c   Code   RO         2896    i.Hal_Get_ADC2_Value  hal_powmanage.o
    0x08007d20   0x08007d20   0x0000001c   Code   RO         2897    i.Hal_Get_ChagFull_State  hal_powmanage.o
    0x08007d3c   0x08007d3c   0x0000001c   Code   RO         2703    i.Hal_Get_MagKey_State  hal_keyled.o
    0x08007d58   0x08007d58   0x00000018   Code   RO         2704    i.Hal_Get_SideKey_State  hal_keyled.o
    0x08007d70   0x08007d70   0x00000018   Code   RO         2705    i.Hal_Get_SlideKey_State  hal_keyled.o
    0x08007d88   0x08007d88   0x0000001c   Code   RO         2898    i.Hal_Get_USB_In_State  hal_powmanage.o
    0x08007da4   0x08007da4   0x00000054   Code   RO         2706    i.Hal_Key_Init      hal_keyled.o
    0x08007df8   0x08007df8   0x000000a0   Code   RO         2707    i.Hal_Led_Init      hal_keyled.o
    0x08007e98   0x08007e98   0x00000098   Code   RO         2899    i.Hal_Pow_Switch_Init  hal_powmanage.o
    0x08007f30   0x08007f30   0x00000080   Code   RO         3116    i.Hal_RTC_init      hal_sleep.o
    0x08007fb0   0x08007fb0   0x00000020   Code   RO         2900    i.Hal_Start_VBat_ADC_Convert  hal_powmanage.o
    0x08007fd0   0x08007fd0   0x00000020   Code   RO         2901    i.Hal_Start_VSloar_ADC_Convert  hal_powmanage.o
    0x08007ff0   0x08007ff0   0x00000104   Code   RO         2840    i.Hal_System_Clock_Init  hal_init.o
    0x080080f4   0x080080f4   0x00000024   Code   RO         2970    i.Hal_Uart1_Deinit  hal_uart.o
    0x08008118   0x08008118   0x000000a4   Code   RO         2971    i.Hal_Uart1_Init    hal_uart.o
    0x080081bc   0x080081bc   0x000000a4   Code   RO         2973    i.Hal_Uart2_Init    hal_uart.o
    0x08008260   0x08008260   0x00000024   Code   RO         2974    i.Hal_Uart3_Deinit  hal_uart.o
    0x08008284   0x08008284   0x000000ac   Code   RO         2975    i.Hal_Uart3_Init    hal_uart.o
    0x08008330   0x08008330   0x00000024   Code   RO         2976    i.Hal_Uart4_Deinit  hal_uart.o
    0x08008354   0x08008354   0x000000a4   Code   RO         2977    i.Hal_Uart4_Init    hal_uart.o
    0x080083f8   0x080083f8   0x00000028   Code   RO         2708    i.Heartbeat_BAT1_Led  hal_keyled.o
    0x08008420   0x08008420   0x00000028   Code   RO         2709    i.Heartbeat_BAT2_Led  hal_keyled.o
    0x08008448   0x08008448   0x00000028   Code   RO         2710    i.Heartbeat_BAT3_Led  hal_keyled.o
    0x08008470   0x08008470   0x00000024   Code   RO         2711    i.Heartbeat_BAT4_Led  hal_keyled.o
    0x08008494   0x08008494   0x00000030   Code   RO         3318    i.Key_Start_Move_Mode  bsp_keyled.o
    0x080084c4   0x080084c4   0x00000030   Code   RO         3319    i.Key_Start_Normal_Mode  bsp_keyled.o
    0x080084f4   0x080084f4   0x00000030   Code   RO         3320    i.Key_Start_PULL_Mode  bsp_keyled.o
    0x08008524   0x08008524   0x0000002c   Code   RO         3321    i.Key_Start_SOS_Mode  bsp_keyled.o
    0x08008550   0x08008550   0x00000014   Code   RO         3942    i.Log_str_printf    bsp_log.o
    0x08008564   0x08008564   0x0000003c   Code   RO         2841    i.Mcu_Hal_Init      hal_init.o
    0x080085a0   0x080085a0   0x0000001a   Code   RO         3969    i.Port_Checksum     bsp_config.o
    0x080085ba   0x080085ba   0x00000002   PAD
    0x080085bc   0x080085bc   0x0000008c   Code   RO         3970    i.Port_Rxdata_deal  bsp_config.o
    0x08008648   0x08008648   0x0000004c   Code   RO         3971    i.Port_Tx_Cmd_Pack  bsp_config.o
    0x08008694   0x08008694   0x00000024   Code   RO         3120    i.RTC_Fre_Calib     hal_sleep.o
    0x080086b8   0x080086b8   0x0000003c   Code   RO         3121    i.RTC_Printf        hal_sleep.o
    0x080086f4   0x080086f4   0x00000018   Code   RO         3748    i.Rdss_Check_Xor    bsp_rdssparse.o
    0x0800870c   0x0800870c   0x00000034   Code   RO         4102    i.SlotBranch100ms   sys_timerun.o
    0x08008740   0x08008740   0x00000044   Code   RO         4103    i.SlotBranch10ms    sys_timerun.o
    0x08008784   0x08008784   0x0000008c   Code   RO         4105    i.SlotBranch1s      sys_timerun.o
    0x08008810   0x08008810   0x00000014   Code   RO         4106    i.SysTick_Handler   sys_timerun.o
    0x08008824   0x08008824   0x0000003c   Code   RO         3322    i.Sys_Start_Charge_Mode  bsp_keyled.o
    0x08008860   0x08008860   0x00000030   Code   RO         3323    i.Sys_Stop_Charge_Mode  bsp_keyled.o
    0x08008890   0x08008890   0x0000006c   Code   RO          162    i.SystemInit        system_at32f435_437.o
    0x080088fc   0x080088fc   0x00000054   Code   RO         3122    i.TMR5_GLOBAL_IRQHandler  hal_sleep.o
    0x08008950   0x08008950   0x00000070   Code   RO            2    i.TimeTurn          api_common.o
    0x080089c0   0x080089c0   0x00000018   Code   RO         4107    i.Time_Routime      sys_timerun.o
    0x080089d8   0x080089d8   0x00000048   Code   RO         3435    i.UART4_IRQHandler  bsp_uartrec.o
    0x08008a20   0x08008a20   0x00000048   Code   RO         3436    i.USART1_IRQHandler  bsp_uartrec.o
    0x08008a68   0x08008a68   0x00000048   Code   RO         3437    i.USART2_IRQHandler  bsp_uartrec.o
    0x08008ab0   0x08008ab0   0x00000048   Code   RO         3438    i.USART3_IRQHandler  bsp_uartrec.o
    0x08008af8   0x08008af8   0x00000020   Code   RO         4447    i.__0printf         mc_w.l(printfa.o)
    0x08008b18   0x08008b18   0x00000028   Code   RO         4449    i.__0sprintf        mc_w.l(printfa.o)
    0x08008b40   0x08008b40   0x00000030   Code   RO         4520    i.__ARM_fpclassify  m_wm.l(fpclassify.o)
    0x08008b70   0x08008b70   0x00000360   Code   RO         4152    i.__hardfp_asin     m_wm.l(asin.o)
    0x08008ed0   0x08008ed0   0x00000038   Code   RO         4166    i.__hardfp_atof     m_wm.l(atof.o)
    0x08008f08   0x08008f08   0x000000c8   Code   RO         4172    i.__hardfp_cos      m_wm.l(cos.o)
    0x08008fd0   0x08008fd0   0x0000007a   Code   RO         4184    i.__hardfp_sqrt     m_wm.l(sqrt.o)
    0x0800904a   0x0800904a   0x00000006   PAD
    0x08009050   0x08009050   0x00000438   Code   RO         4524    i.__ieee754_rem_pio2  m_wm.l(rred.o)
    0x08009488   0x08009488   0x00000170   Code   RO         4497    i.__kernel_cos      m_wm.l(cos_i.o)
    0x080095f8   0x080095f8   0x000000f8   Code   RO         4522    i.__kernel_poly     m_wm.l(poly.o)
    0x080096f0   0x080096f0   0x00000130   Code   RO         4529    i.__kernel_sin      m_wm.l(sin_i.o)
    0x08009820   0x08009820   0x00000014   Code   RO         4501    i.__mathlib_dbl_infnan  m_wm.l(dunder.o)
    0x08009834   0x08009834   0x00000004   PAD
    0x08009838   0x08009838   0x00000020   Code   RO         4503    i.__mathlib_dbl_invalid  m_wm.l(dunder.o)
    0x08009858   0x08009858   0x00000020   Code   RO         4506    i.__mathlib_dbl_underflow  m_wm.l(dunder.o)
    0x08009878   0x08009878   0x0000000c   Code   RO         4564    i.__read_errno      mc_w.l(errno.o)
    0x08009884   0x08009884   0x0000000e   Code   RO         4610    i.__scatterload_copy  mc_w.l(handlers.o)
    0x08009892   0x08009892   0x00000002   Code   RO         4611    i.__scatterload_null  mc_w.l(handlers.o)
    0x08009894   0x08009894   0x0000000e   Code   RO         4612    i.__scatterload_zeroinit  mc_w.l(handlers.o)
    0x080098a2   0x080098a2   0x00000002   PAD
    0x080098a4   0x080098a4   0x0000000c   Code   RO         4565    i.__set_errno       mc_w.l(errno.o)
    0x080098b0   0x080098b0   0x00000184   Code   RO         4454    i._fp_digits        mc_w.l(printfa.o)
    0x08009a34   0x08009a34   0x0000000e   Code   RO         4597    i._is_digit         mc_w.l(scanf_fp.o)
    0x08009a42   0x08009a42   0x00000002   PAD
    0x08009a44   0x08009a44   0x000006dc   Code   RO         4455    i._printf_core      mc_w.l(printfa.o)
    0x0800a120   0x0800a120   0x00000024   Code   RO         4456    i._printf_post_padding  mc_w.l(printfa.o)
    0x0800a144   0x0800a144   0x0000002e   Code   RO         4457    i._printf_pre_padding  mc_w.l(printfa.o)
    0x0800a172   0x0800a172   0x0000000a   Code   RO         4459    i._sputc            mc_w.l(printfa.o)
    0x0800a17c   0x0800a17c   0x0000002c   Code   RO          316    i.adc_base_config   at32f435_437_adc.o
    0x0800a1a8   0x0800a1a8   0x0000000e   Code   RO          317    i.adc_base_default_para_init  at32f435_437_adc.o
    0x0800a1b6   0x0800a1b6   0x00000002   PAD
    0x0800a1b8   0x0800a1b8   0x00000084   Code   RO          324    i.adc_common_config  at32f435_437_adc.o
    0x0800a23c   0x0800a23c   0x00000012   Code   RO          325    i.adc_common_default_para_init  at32f435_437_adc.o
    0x0800a24e   0x0800a24e   0x0000000a   Code   RO          330    i.adc_enable        at32f435_437_adc.o
    0x0800a258   0x0800a258   0x00000074   Code   RO          336    i.adc_ordinary_channel_set  at32f435_437_adc.o
    0x0800a2cc   0x0800a2cc   0x00000006   Code   RO          337    i.adc_ordinary_conversion_data_get  at32f435_437_adc.o
    0x0800a2d2   0x0800a2d2   0x0000000a   Code   RO          344    i.adc_ordinary_software_trigger_enable  at32f435_437_adc.o
    0x0800a2dc   0x0800a2dc   0x000000a4   Code   RO         3242    i.app_clear_sys_status  hal_flash.o
    0x0800a380   0x0800a380   0x00000048   Code   RO            7    i.convert_str_to_hex  api_common.o
    0x0800a3c8   0x0800a3c8   0x00000032   Code   RO            8    i.convert_str_to_uint32  api_common.o
    0x0800a3fa   0x0800a3fa   0x00000002   PAD
    0x0800a3fc   0x0800a3fc   0x00000010   Code   RO          620    i.crm_ahb_div_set   at32f435_437_crm.o
    0x0800a40c   0x0800a40c   0x00000010   Code   RO          621    i.crm_apb1_div_set  at32f435_437_crm.o
    0x0800a41c   0x0800a41c   0x00000010   Code   RO          622    i.crm_apb2_div_set  at32f435_437_crm.o
    0x0800a42c   0x0800a42c   0x0000001c   Code   RO          623    i.crm_auto_step_mode_enable  at32f435_437_crm.o
    0x0800a448   0x0800a448   0x00000010   Code   RO          624    i.crm_battery_powered_domain_reset  at32f435_437_crm.o
    0x0800a458   0x0800a458   0x00000044   Code   RO          630    i.crm_clock_source_enable  at32f435_437_crm.o
    0x0800a49c   0x0800a49c   0x000000b8   Code   RO          631    i.crm_clocks_freq_get  at32f435_437_crm.o
    0x0800a554   0x0800a554   0x00000010   Code   RO          633    i.crm_ertc_clock_enable  at32f435_437_crm.o
    0x0800a564   0x0800a564   0x00000020   Code   RO          634    i.crm_ertc_clock_select  at32f435_437_crm.o
    0x0800a584   0x0800a584   0x00000024   Code   RO          636    i.crm_flag_get      at32f435_437_crm.o
    0x0800a5a8   0x0800a5a8   0x00000028   Code   RO          638    i.crm_hext_stable_wait  at32f435_437_crm.o
    0x0800a5d0   0x0800a5d0   0x0000002c   Code   RO          646    i.crm_periph_clock_enable  at32f435_437_crm.o
    0x0800a5fc   0x0800a5fc   0x0000002c   Code   RO          648    i.crm_periph_reset  at32f435_437_crm.o
    0x0800a628   0x0800a628   0x00000038   Code   RO          649    i.crm_pll_config    at32f435_437_crm.o
    0x0800a660   0x0800a660   0x00000058   Code   RO          651    i.crm_reset         at32f435_437_crm.o
    0x0800a6b8   0x0800a6b8   0x00000038   Code   RO          652    i.crm_sysclk_switch  at32f435_437_crm.o
    0x0800a6f0   0x0800a6f0   0x00000010   Code   RO          653    i.crm_sysclk_switch_status_get  at32f435_437_crm.o
    0x0800a700   0x0800a700   0x00000012   Code   RO         1027    i.ertc_bcd_to_num   at32f435_437_ertc.o
    0x0800a712   0x0800a712   0x00000002   PAD
    0x0800a714   0x0800a714   0x00000070   Code   RO         1032    i.ertc_calendar_get  at32f435_437_ertc.o
    0x0800a784   0x0800a784   0x00000078   Code   RO         1035    i.ertc_date_set     at32f435_437_ertc.o
    0x0800a7fc   0x0800a7fc   0x00000040   Code   RO         1039    i.ertc_divider_set  at32f435_437_ertc.o
    0x0800a83c   0x0800a83c   0x0000001c   Code   RO         1040    i.ertc_flag_clear   at32f435_437_ertc.o
    0x0800a858   0x0800a858   0x00000038   Code   RO         1042    i.ertc_hour_mode_set  at32f435_437_ertc.o
    0x0800a890   0x0800a890   0x00000034   Code   RO         1043    i.ertc_init_mode_enter  at32f435_437_ertc.o
    0x0800a8c4   0x0800a8c4   0x00000078   Code   RO         1046    i.ertc_interrupt_flag_get  at32f435_437_ertc.o
    0x0800a93c   0x0800a93c   0x00000016   Code   RO         1048    i.ertc_num_to_bcd   at32f435_437_ertc.o
    0x0800a952   0x0800a952   0x00000002   PAD
    0x0800a954   0x0800a954   0x0000007c   Code   RO         1051    i.ertc_reset        at32f435_437_ertc.o
    0x0800a9d0   0x0800a9d0   0x00000078   Code   RO         1063    i.ertc_time_set     at32f435_437_ertc.o
    0x0800aa48   0x0800aa48   0x0000002c   Code   RO         1070    i.ertc_wait_update  at32f435_437_ertc.o
    0x0800aa74   0x0800aa74   0x00000010   Code   RO         1075    i.ertc_write_protect_disable  at32f435_437_ertc.o
    0x0800aa84   0x0800aa84   0x0000000c   Code   RO         1376    i.exint_flag_clear  at32f435_437_exint.o
    0x0800aa90   0x0800aa90   0x0000001c   Code   RO         1380    i.exint_interrupt_flag_get  at32f435_437_exint.o
    0x0800aaac   0x0800aaac   0x00000018   Code   RO         4516    i.fabs              m_wm.l(fabs.o)
    0x0800aac4   0x0800aac4   0x00000028   Code   RO         1448    i.flash_bank1_operation_status_get  at32f435_437_flash.o
    0x0800aaec   0x0800aaec   0x00000022   Code   RO         1449    i.flash_bank1_operation_wait_for  at32f435_437_flash.o
    0x0800ab0e   0x0800ab0e   0x00000002   PAD
    0x0800ab10   0x0800ab10   0x00000028   Code   RO         1453    i.flash_bank2_operation_status_get  at32f435_437_flash.o
    0x0800ab38   0x0800ab38   0x00000022   Code   RO         1454    i.flash_bank2_operation_wait_for  at32f435_437_flash.o
    0x0800ab5a   0x0800ab5a   0x00000002   PAD
    0x0800ab5c   0x0800ab5c   0x0000006c   Code   RO         1474    i.flash_sector_erase  at32f435_437_flash.o
    0x0800abc8   0x0800abc8   0x00000020   Code   RO         1484    i.flash_unlock      at32f435_437_flash.o
    0x0800abe8   0x0800abe8   0x00000058   Code   RO         1487    i.flash_word_program  at32f435_437_flash.o
    0x0800ac40   0x0800ac40   0x00000024   Code   RO         2980    i.fputc             hal_uart.o
    0x0800ac64   0x0800ac64   0x00000004   Code   RO         1714    i.gpio_bits_reset   at32f435_437_gpio.o
    0x0800ac68   0x0800ac68   0x00000004   Code   RO         1715    i.gpio_bits_set     at32f435_437_gpio.o
    0x0800ac6c   0x0800ac6c   0x0000000a   Code   RO         1716    i.gpio_bits_write   at32f435_437_gpio.o
    0x0800ac76   0x0800ac76   0x00000014   Code   RO         1717    i.gpio_default_para_init  at32f435_437_gpio.o
    0x0800ac8a   0x0800ac8a   0x00000064   Code   RO         1718    i.gpio_init         at32f435_437_gpio.o
    0x0800acee   0x0800acee   0x0000000e   Code   RO         1719    i.gpio_input_data_bit_read  at32f435_437_gpio.o
    0x0800acfc   0x0800acfc   0x0000000e   Code   RO         1721    i.gpio_output_data_bit_read  at32f435_437_gpio.o
    0x0800ad0a   0x0800ad0a   0x00000030   Code   RO         1723    i.gpio_pin_mux_config  at32f435_437_gpio.o
    0x0800ad3a   0x0800ad3a   0x00000064   Code   RO         3972    i.id_write          bsp_config.o
    0x0800ad9e   0x0800ad9e   0x00000002   PAD
    0x0800ada0   0x0800ada0   0x00000018   Code   RO         3973    i.infor_get         bsp_config.o
    0x0800adb8   0x0800adb8   0x00000068   Code   RO         3974    i.infor_rep         bsp_config.o
    0x0800ae20   0x0800ae20   0x000000b0   Code   RO         3124    i.lick_frequency_get  hal_sleep.o
    0x0800aed0   0x0800aed0   0x00000038   Code   RO          115    i.lm_fifo_add_node_impolite  api_fifo.o
    0x0800af08   0x0800af08   0x00000020   Code   RO          116    i.lm_fifo_delete_node  api_fifo.o
    0x0800af28   0x0800af28   0x00000020   Code   RO          117    i.lm_fifo_delete_node_for_ISR  api_fifo.o
    0x0800af48   0x0800af48   0x00000018   Code   RO          118    i.lm_fifo_get_node  api_fifo.o
    0x0800af60   0x0800af60   0x00000026   Code   RO          119    i.lm_fifo_init      api_fifo.o
    0x0800af86   0x0800af86   0x0000001c   Code   RO          120    i.lm_fifo_is_full   api_fifo.o
    0x0800afa2   0x0800afa2   0x0000001e   Code   RO         4087    i.main              main.o
    0x0800afc0   0x0800afc0   0x00000022   Code   RO         1900    i.nvic_irq_disable  at32f435_437_misc.o
    0x0800afe2   0x0800afe2   0x00000002   PAD
    0x0800afe4   0x0800afe4   0x0000007c   Code   RO         1901    i.nvic_irq_enable   at32f435_437_misc.o
    0x0800b060   0x0800b060   0x00000024   Code   RO         1903    i.nvic_priority_group_config  at32f435_437_misc.o
    0x0800b084   0x0800b084   0x00000014   Code   RO         1905    i.nvic_vector_table_set  at32f435_437_misc.o
    0x0800b098   0x0800b098   0x0000006c   Code   RO         3975    i.open_closs_gnss   bsp_config.o
    0x0800b104   0x0800b104   0x00000078   Code   RO         3976    i.open_closs_rdss   bsp_config.o
    0x0800b17c   0x0800b17c   0x0000004c   Code   RO         3977    i.ota_start_rep     bsp_config.o
    0x0800b1c8   0x0800b1c8   0x00000010   Code   RO         1816    i.pwc_battery_powered_domain_access  at32f435_437_pwc.o
    0x0800b1d8   0x0800b1d8   0x0000006e   Code   RO         4186    i.sqrt              m_wm.l(sqrt.o)
    0x0800b246   0x0800b246   0x00000002   PAD
    0x0800b248   0x0800b248   0x0000009c   Code   RO          163    i.system_core_clock_update  system_at32f435_437.o
    0x0800b2e4   0x0800b2e4   0x00000018   Code   RO         1906    i.systick_clock_source_config  at32f435_437_misc.o
    0x0800b2fc   0x0800b2fc   0x00000028   Code   RO         1972    i.tmr_channel_value_get  at32f435_437_tmr.o
    0x0800b324   0x0800b324   0x0000000a   Code   RO         1976    i.tmr_counter_enable  at32f435_437_tmr.o
    0x0800b32e   0x0800b32e   0x00000004   Code   RO         1980    i.tmr_div_value_set  at32f435_437_tmr.o
    0x0800b332   0x0800b332   0x00000008   Code   RO         1984    i.tmr_event_sw_trigger  at32f435_437_tmr.o
    0x0800b33a   0x0800b33a   0x00000006   Code   RO         1988    i.tmr_flag_clear    at32f435_437_tmr.o
    0x0800b340   0x0800b340   0x00000032   Code   RO         1992    i.tmr_input_channel_divider_set  at32f435_437_tmr.o
    0x0800b372   0x0800b372   0x00000110   Code   RO         1994    i.tmr_input_channel_init  at32f435_437_tmr.o
    0x0800b482   0x0800b482   0x00000016   Code   RO         1997    i.tmr_interrupt_enable  at32f435_437_tmr.o
    0x0800b498   0x0800b498   0x00000014   Code   RO         1998    i.tmr_interrupt_flag_get  at32f435_437_tmr.o
    0x0800b4ac   0x0800b4ac   0x00000024   Code   RO         1999    i.tmr_iremap_config  at32f435_437_tmr.o
    0x0800b4d0   0x0800b4d0   0x00000120   Code   RO         2017    i.tmr_reset         at32f435_437_tmr.o
    0x0800b5f0   0x0800b5f0   0x00000034   Code   RO         2984    i.uart2_tx_string   hal_uart.o
    0x0800b624   0x0800b624   0x00000034   Code   RO         2986    i.uart3_tx_string   hal_uart.o
    0x0800b658   0x0800b658   0x00000034   Code   RO         2988    i.uart4_tx_string   hal_uart.o
    0x0800b68c   0x0800b68c   0x00000006   Code   RO         2334    i.usart_data_receive  at32f435_437_usart.o
    0x0800b692   0x0800b692   0x00000008   Code   RO         2335    i.usart_data_transmit  at32f435_437_usart.o
    0x0800b69a   0x0800b69a   0x0000000a   Code   RO         2339    i.usart_enable      at32f435_437_usart.o
    0x0800b6a4   0x0800b6a4   0x00000010   Code   RO         2340    i.usart_flag_clear  at32f435_437_usart.o
    0x0800b6b4   0x0800b6b4   0x0000000a   Code   RO         2341    i.usart_flag_get    at32f435_437_usart.o
    0x0800b6be   0x0800b6be   0x00000002   PAD
    0x0800b6c0   0x0800b6c0   0x00000084   Code   RO         2344    i.usart_init        at32f435_437_usart.o
    0x0800b744   0x0800b744   0x0000001e   Code   RO         2345    i.usart_interrupt_enable  at32f435_437_usart.o
    0x0800b762   0x0800b762   0x0000008c   Code   RO         2346    i.usart_interrupt_flag_get  at32f435_437_usart.o
    0x0800b7ee   0x0800b7ee   0x0000000a   Code   RO         2352    i.usart_receiver_enable  at32f435_437_usart.o
    0x0800b7f8   0x0800b7f8   0x0000000a   Code   RO         2361    i.usart_transmit_receive_pin_swap  at32f435_437_usart.o
    0x0800b802   0x0800b802   0x0000000a   Code   RO         2362    i.usart_transmitter_enable  at32f435_437_usart.o
    0x0800b80c   0x0800b80c   0x00000018   Code   RO         3978    i.versions_rep      bsp_config.o
    0x0800b824   0x0800b824   0x00000016   Data   RO          164    .constdata          system_at32f435_437.o
    0x0800b83a   0x0800b83a   0x00000026   Data   RO          656    .constdata          at32f435_437_crm.o
    0x0800b860   0x0800b860   0x000000c8   Data   RO         3530    .constdata          bsp_batvol.o
    0x0800b928   0x0800b928   0x00000021   Data   RO         3650    .constdata          bsp_gnssparse.o
    0x0800b949   0x0800b949   0x00000016   Data   RO         3750    .constdata          bsp_rdssparse.o
    0x0800b95f   0x0800b95f   0x00000001   PAD
    0x0800b960   0x0800b960   0x00000050   Data   RO         4155    .constdata          m_wm.l(asin.o)
    0x0800b9b0   0x0800b9b0   0x0000000c   Data   RO         4202    .constdata          mc_w.l(mktime.o)
    0x0800b9bc   0x0800b9bc   0x00000004   PAD
    0x0800b9c0   0x0800b9c0   0x00000030   Data   RO         4498    .constdata          m_wm.l(cos_i.o)
    0x0800b9f0   0x0800b9f0   0x000000c8   Data   RO         4526    .constdata          m_wm.l(rred.o)
    0x0800bab8   0x0800bab8   0x00000028   Data   RO         4530    .constdata          m_wm.l(sin_i.o)
    0x0800bae0   0x0800bae0   0x0000000c   Data   RO         4561    .constdata          mc_w.l(localtime_i.o)
    0x0800baec   0x0800baec   0x00000040   Data   RO         4604    .constdata          mc_w.l(ctype_c.o)
    0x0800bb2c   0x0800bb2c   0x00000360   Data   RO         3836    .conststring        bsp_rdsssend.o
    0x0800be8c   0x0800be8c   0x00000020   Data   RO         4608    Region$$Table       anon$$obj.o


    Execution Region RW_IRAM1 (Exec base: 0x20000000, Load base: 0x0800beac, Size: 0x00001af8, Max: 0x00060000, ABSOLUTE)

    Exec Addr    Load Addr    Size         Type   Attr      Idx    E Section Name        Object

    0x20000000   0x0800beac   0x00000004   Data   RW          165    .data               system_at32f435_437.o
    0x20000004   0x0800beb0   0x00000004   Data   RW         2989    .data               hal_uart.o
    0x20000008   0x0800beb4   0x0000001c   Data   RW         3125    .data               hal_sleep.o
    0x20000024   0x0800bed0   0x00000004   Data   RW         3243    .data               hal_flash.o
    0x20000028   0x0800bed4   0x0000000c   Data   RW         3325    .data               bsp_keyled.o
    0x20000034   0x0800bee0   0x00000008   Data   RW         3531    .data               bsp_batvol.o
    0x2000003c   0x0800bee8   0x00000006   Data   RW         3651    .data               bsp_gnssparse.o
    0x20000042   0x0800beee   0x00000001   Data   RW         3980    .data               bsp_config.o
    0x20000043   0x0800beef   0x00000001   PAD
    0x20000044   0x0800bef0   0x00000008   Data   RW         4108    .data               sys_timerun.o
    0x2000004c   0x0800bef8   0x00000004   Data   RW         4566    .data               mc_w.l(errno.o)
    0x20000050        -       0x0000000c   Zero   RW         3324    .bss                bsp_keyled.o
    0x2000005c        -       0x00000820   Zero   RW         3439    .bss                bsp_uartrec.o
    0x2000087c        -       0x00000014   Zero   RW         3529    .bss                bsp_batvol.o
    0x20000890        -       0x00000260   Zero   RW         3649    .bss                bsp_gnssparse.o
    0x20000af0        -       0x000001bc   Zero   RW         3749    .bss                bsp_rdssparse.o
    0x20000cac   0x0800befc   0x00000004   PAD
    0x20000cb0        -       0x00000968   Zero   RW         3835    .bss                bsp_rdsssend.o
    0x20001618        -       0x000000d9   Zero   RW         3979    .bss                bsp_config.o
    0x200016f1   0x0800befc   0x00000007   PAD
    0x200016f8        -       0x00000400   Zero   RW          306    STACK               startup_at32f435_437.o


==============================================================================

Image component sizes


      Code (inc. data)   RO Data    RW Data    ZI Data      Debug   Object Name

       274          6          0          0          0       9206   api_common.o
       210          0          0          0          0       4954   api_fifo.o
       350          6          0          0          0       5560   at32f435_437_adc.o
       772        110         38          0          0      11315   at32f435_437_crm.o
       896         52          0          0          0       9743   at32f435_437_ertc.o
        40         10          0          0          0       1230   at32f435_437_exint.o
       376         40          0          0          0       5589   at32f435_437_flash.o
       214          0          0          0          0       5710   at32f435_437_gpio.o
       238         24          0          0          0      33699   at32f435_437_misc.o
        16          4          0          0          0        580   at32f435_437_pwc.o
       756         78          0          0          0       8126   at32f435_437_tmr.o
       382          8          0          0          0       7612   at32f435_437_usart.o
       586        124        200          8         20       6820   bsp_batvol.o
      1142        110          0          1        217      11564   bsp_config.o
      2190        306         33          6        608      11193   bsp_gnssparse.o
         4          0          0          0          0        471   bsp_init.o
      1064        248          0         12         12      12203   bsp_keyled.o
        20          4          0          0          0       1089   bsp_log.o
      1202        188         22          0        444       9377   bsp_rdssparse.o
      4096        772        864          0       2408      13345   bsp_rdsssend.o
       508         66          0          0       2080      10334   bsp_uartrec.o
       364         22          0          4          0       8926   hal_flash.o
       320         30          0          0          0      32014   hal_init.o
       714         70          0          0          0       9338   hal_keyled.o
       648         76          0          0          0       5873   hal_powmanage.o
       518         72          0         28          0       5081   hal_sleep.o
       964        126          0          4          0       8545   hal_uart.o
        30          0          0          0          0        499   main.o
        36          8        524          0       1024        896   startup_at32f435_437.o
       304         86          0          8          0       4118   sys_timerun.o
       264         42         22          4          0      79560   system_at32f435_437.o

    ----------------------------------------------------------------------
     19528       2688       1736         76       6824     334570   Object Totals
         0          0         32          0          0          0   (incl. Generated)
        30          0          1          1         11          0   (incl. Padding)

    ----------------------------------------------------------------------

      Code (inc. data)   RO Data    RW Data    ZI Data      Debug   Library Member Name

       864         94         80          0          0        280   asin.o
        56         12          0          0          0        132   atof.o
       200         20          0          0          0        164   cos.o
       368         46         48          0          0        200   cos_i.o
        84         16          0          0          0        372   dunder.o
        24          0          0          0          0        124   fabs.o
        48          0          0          0          0        124   fpclassify.o
       248          0          0          0          0        152   poly.o
      1080        142        200          0          0        188   rred.o
       304         24         40          0          0        208   sin_i.o
       232          0          0          0          0        296   sqrt.o
        56          8          0          0          0         84   __0sscanf.o
        28          0          0          0          0         68   _chval.o
       812          4          0          0          0        112   _scanf.o
       332          0          0          0          0         96   _scanf_int.o
        64          0          0          0          0         84   _sgetc.o
        40          6         64          0          0         68   ctype_c.o
         0          0          0          0          0          0   entry.o
         0          0          0          0          0          0   entry10a.o
         0          0          0          0          0          0   entry11a.o
         8          4          0          0          0          0   entry2.o
         4          0          0          0          0          0   entry5.o
         0          0          0          0          0          0   entry7b.o
         0          0          0          0          0          0   entry8b.o
         8          4          0          0          0          0   entry9a.o
        24         12          0          4          0        136   errno.o
        30          0          0          0          0          0   handlers.o
        36          8          0          0          0         68   init.o
        10          0          0          0          0         68   isspace_c.o
         0          0          0          0          0          0   iusefp.o
        30          0          0          0          0         68   llshl.o
        36          0          0          0          0         68   llsshr.o
        32          0          0          0          0         68   llushr.o
       140          6         12          0          0         76   localtime_i.o
        26          0          0          0          0         80   memcmp.o
        36          0          0          0          0         68   memcpya.o
        36          0          0          0          0        108   memseta.o
       168         18         12          0          0         80   mktime.o
      2308         96          0          0          0        604   printfa.o
        40          8          0          0          0         84   scanf_char.o
       878         12          0          0          0        216   scanf_fp.o
        14          0          0          0          0         68   strlen.o
       156         12          0          0          0        120   strtod.o
        44          0          0          0          0         80   uidiv.o
        98          0          0          0          0         92   uldiv.o
        48          0          0          0          0         68   cdcmple.o
        48          0          0          0          0         68   cdrcmple.o
        56          0          0          0          0         88   d2f.o
       334          0          0          0          0        148   dadd.o
       222          0          0          0          0        100   ddiv.o
       186          0          0          0          0        176   depilogue.o
        62          0          0          0          0         80   dfixi.o
        50          0          0          0          0         76   dfixui.o
        48          0          0          0          0         68   dfixul.o
        34          0          0          0          0         76   dflti.o
        26          0          0          0          0         76   dfltui.o
        24          0          0          0          0         76   dfltul.o
       228          0          0          0          0         96   dmul.o
       162          0          0          0          0        100   dsqrt.o
        38          0          0          0          0         68   f2d.o
       110          0          0          0          0        168   fepilogue.o

    ----------------------------------------------------------------------
     10704        552        460          4          0       6436   Library Totals
        26          0          4          0          0          0   (incl. Padding)

    ----------------------------------------------------------------------

      Code (inc. data)   RO Data    RW Data    ZI Data      Debug   Library Name

      3508        354        368          0          0       2240   m_wm.l
      5494        198         88          4          0       2664   mc_w.l
      1676          0          0          0          0       1532   mf_w.l

    ----------------------------------------------------------------------
     10704        552        460          4          0       6436   Library Totals

    ----------------------------------------------------------------------

==============================================================================


      Code (inc. data)   RO Data    RW Data    ZI Data      Debug   

     30232       3240       2196         80       6824     314322   Grand Totals
     30232       3240       2196         80       6824     314322   ELF Image Totals
     30232       3240       2196         80          0          0   ROM Totals

==============================================================================

    Total RO  Size (Code + RO Data)                32428 (  31.67kB)
    Total RW  Size (RW Data + ZI Data)              6904 (   6.74kB)
    Total ROM Size (Code + RO Data + RW Data)      32508 (  31.75kB)

==============================================================================

